
test100.elf:     file format elf32-littlearm

Sections:
Idx Name          Size      VMA       LMA       File off  Algn
  0 .isr_vector   000001f8  08000000  08000000  00010000  2**0
                  CONTENTS, ALLOC, LOAD, READONLY, DATA
  1 .text         00000e34  080001f8  080001f8  000101f8  2**2
                  CONTENTS, ALLOC, LOAD, READONLY, CODE
  2 .rodata       00000010  0800102c  0800102c  0001102c  2**2
                  CONTENTS, ALLOC, LOAD, READONLY, DATA
  3 .ARM.extab    00000000  0800103c  0800103c  0002000c  2**0
                  CONTENTS
  4 .ARM          00000008  0800103c  0800103c  0001103c  2**2
                  CONTENTS, ALLOC, LOAD, READONLY, DATA
  5 .preinit_array 00000000  08001044  08001044  0002000c  2**0
                  CONTENTS, ALLOC, LOAD, DATA
  6 .init_array   00000004  08001044  08001044  00011044  2**2
                  CONTENTS, ALLOC, LOAD, DATA
  7 .fini_array   00000004  08001048  08001048  00011048  2**2
                  CONTENTS, ALLOC, LOAD, DATA
  8 .data         0000000c  20000000  0800104c  00020000  2**2
                  CONTENTS, ALLOC, LOAD, DATA
  9 .bss          00000020  2000000c  08001058  0002000c  2**2
                  ALLOC
 10 ._user_heap_stack 00000604  2000002c  08001058  0002002c  2**0
                  ALLOC
 11 .ARM.attributes 0000002e  00000000  00000000  0002000c  2**0
                  CONTENTS, READONLY
 12 .comment      0000007b  00000000  00000000  0002003a  2**0
                  CONTENTS, READONLY
 13 .debug_frame  000000ac  00000000  00000000  000200b8  2**2
                  CONTENTS, READONLY, DEBUGGING

Disassembly of section .text:

080001f8 <__do_global_dtors_aux>:
 80001f8:	b510      	push	{r4, lr}
 80001fa:	4c05      	ldr	r4, [pc, #20]	; (8000210 <__do_global_dtors_aux+0x18>)
 80001fc:	7823      	ldrb	r3, [r4, #0]
 80001fe:	b933      	cbnz	r3, 800020e <__do_global_dtors_aux+0x16>
 8000200:	4b04      	ldr	r3, [pc, #16]	; (8000214 <__do_global_dtors_aux+0x1c>)
 8000202:	b113      	cbz	r3, 800020a <__do_global_dtors_aux+0x12>
 8000204:	4804      	ldr	r0, [pc, #16]	; (8000218 <__do_global_dtors_aux+0x20>)
 8000206:	f3af 8000 	nop.w
 800020a:	2301      	movs	r3, #1
 800020c:	7023      	strb	r3, [r4, #0]
 800020e:	bd10      	pop	{r4, pc}
 8000210:	2000000c 	.word	0x2000000c
 8000214:	00000000 	.word	0x00000000
 8000218:	08001014 	.word	0x08001014

0800021c <frame_dummy>:
 800021c:	b508      	push	{r3, lr}
 800021e:	4b03      	ldr	r3, [pc, #12]	; (800022c <frame_dummy+0x10>)
 8000220:	b11b      	cbz	r3, 800022a <frame_dummy+0xe>
 8000222:	4903      	ldr	r1, [pc, #12]	; (8000230 <frame_dummy+0x14>)
 8000224:	4803      	ldr	r0, [pc, #12]	; (8000234 <frame_dummy+0x18>)
 8000226:	f3af 8000 	nop.w
 800022a:	bd08      	pop	{r3, pc}
 800022c:	00000000 	.word	0x00000000
 8000230:	20000010 	.word	0x20000010
 8000234:	08001014 	.word	0x08001014

08000238 <__aeabi_uldivmod>:
 8000238:	b953      	cbnz	r3, 8000250 <__aeabi_uldivmod+0x18>
 800023a:	b94a      	cbnz	r2, 8000250 <__aeabi_uldivmod+0x18>
 800023c:	2900      	cmp	r1, #0
 800023e:	bf08      	it	eq
 8000240:	2800      	cmpeq	r0, #0
 8000242:	bf1c      	itt	ne
 8000244:	f04f 31ff 	movne.w	r1, #4294967295
 8000248:	f04f 30ff 	movne.w	r0, #4294967295
 800024c:	f000 b972 	b.w	8000534 <__aeabi_idiv0>
 8000250:	f1ad 0c08 	sub.w	ip, sp, #8
 8000254:	e96d ce04 	strd	ip, lr, [sp, #-16]!
 8000258:	f000 f806 	bl	8000268 <__udivmoddi4>
 800025c:	f8dd e004 	ldr.w	lr, [sp, #4]
 8000260:	e9dd 2302 	ldrd	r2, r3, [sp, #8]
 8000264:	b004      	add	sp, #16
 8000266:	4770      	bx	lr

08000268 <__udivmoddi4>:
 8000268:	e92d 47f0 	stmdb	sp!, {r4, r5, r6, r7, r8, r9, sl, lr}
 800026c:	9e08      	ldr	r6, [sp, #32]
 800026e:	4604      	mov	r4, r0
 8000270:	4688      	mov	r8, r1
 8000272:	2b00      	cmp	r3, #0
 8000274:	d14b      	bne.n	800030e <__udivmoddi4+0xa6>
 8000276:	428a      	cmp	r2, r1
 8000278:	4615      	mov	r5, r2
 800027a:	d967      	bls.n	800034c <__udivmoddi4+0xe4>
 800027c:	fab2 f282 	clz	r2, r2
 8000280:	b14a      	cbz	r2, 8000296 <__udivmoddi4+0x2e>
 8000282:	f1c2 0720 	rsb	r7, r2, #32
 8000286:	fa01 f302 	lsl.w	r3, r1, r2
 800028a:	fa20 f707 	lsr.w	r7, r0, r7
 800028e:	4095      	lsls	r5, r2
 8000290:	ea47 0803 	orr.w	r8, r7, r3
 8000294:	4094      	lsls	r4, r2
 8000296:	ea4f 4e15 	mov.w	lr, r5, lsr #16
 800029a:	0c23      	lsrs	r3, r4, #16
 800029c:	fbb8 f7fe 	udiv	r7, r8, lr
 80002a0:	fa1f fc85 	uxth.w	ip, r5
 80002a4:	fb0e 8817 	mls	r8, lr, r7, r8
 80002a8:	ea43 4308 	orr.w	r3, r3, r8, lsl #16
 80002ac:	fb07 f10c 	mul.w	r1, r7, ip
 80002b0:	4299      	cmp	r1, r3
 80002b2:	d909      	bls.n	80002c8 <__udivmoddi4+0x60>
 80002b4:	18eb      	adds	r3, r5, r3
 80002b6:	f107 30ff 	add.w	r0, r7, #4294967295
 80002ba:	f080 811b 	bcs.w	80004f4 <__udivmoddi4+0x28c>
 80002be:	4299      	cmp	r1, r3
 80002c0:	f240 8118 	bls.w	80004f4 <__udivmoddi4+0x28c>
 80002c4:	3f02      	subs	r7, #2
 80002c6:	442b      	add	r3, r5
 80002c8:	1a5b      	subs	r3, r3, r1
 80002ca:	b2a4      	uxth	r4, r4
 80002cc:	fbb3 f0fe 	udiv	r0, r3, lr
 80002d0:	fb0e 3310 	mls	r3, lr, r0, r3
 80002d4:	ea44 4403 	orr.w	r4, r4, r3, lsl #16
 80002d8:	fb00 fc0c 	mul.w	ip, r0, ip
 80002dc:	45a4      	cmp	ip, r4
 80002de:	d909      	bls.n	80002f4 <__udivmoddi4+0x8c>
 80002e0:	192c      	adds	r4, r5, r4
 80002e2:	f100 33ff 	add.w	r3, r0, #4294967295
 80002e6:	f080 8107 	bcs.w	80004f8 <__udivmoddi4+0x290>
 80002ea:	45a4      	cmp	ip, r4
 80002ec:	f240 8104 	bls.w	80004f8 <__udivmoddi4+0x290>
 80002f0:	3802      	subs	r0, #2
 80002f2:	442c      	add	r4, r5
 80002f4:	ea40 4007 	orr.w	r0, r0, r7, lsl #16
 80002f8:	eba4 040c 	sub.w	r4, r4, ip
 80002fc:	2700      	movs	r7, #0
 80002fe:	b11e      	cbz	r6, 8000308 <__udivmoddi4+0xa0>
 8000300:	40d4      	lsrs	r4, r2
 8000302:	2300      	movs	r3, #0
 8000304:	e9c6 4300 	strd	r4, r3, [r6]
 8000308:	4639      	mov	r1, r7
 800030a:	e8bd 87f0 	ldmia.w	sp!, {r4, r5, r6, r7, r8, r9, sl, pc}
 800030e:	428b      	cmp	r3, r1
 8000310:	d909      	bls.n	8000326 <__udivmoddi4+0xbe>
 8000312:	2e00      	cmp	r6, #0
 8000314:	f000 80eb 	beq.w	80004ee <__udivmoddi4+0x286>
 8000318:	2700      	movs	r7, #0
 800031a:	e9c6 0100 	strd	r0, r1, [r6]
 800031e:	4638      	mov	r0, r7
 8000320:	4639      	mov	r1, r7
 8000322:	e8bd 87f0 	ldmia.w	sp!, {r4, r5, r6, r7, r8, r9, sl, pc}
 8000326:	fab3 f783 	clz	r7, r3
 800032a:	2f00      	cmp	r7, #0
 800032c:	d147      	bne.n	80003be <__udivmoddi4+0x156>
 800032e:	428b      	cmp	r3, r1
 8000330:	d302      	bcc.n	8000338 <__udivmoddi4+0xd0>
 8000332:	4282      	cmp	r2, r0
 8000334:	f200 80fa 	bhi.w	800052c <__udivmoddi4+0x2c4>
 8000338:	1a84      	subs	r4, r0, r2
 800033a:	eb61 0303 	sbc.w	r3, r1, r3
 800033e:	2001      	movs	r0, #1
 8000340:	4698      	mov	r8, r3
 8000342:	2e00      	cmp	r6, #0
 8000344:	d0e0      	beq.n	8000308 <__udivmoddi4+0xa0>
 8000346:	e9c6 4800 	strd	r4, r8, [r6]
 800034a:	e7dd      	b.n	8000308 <__udivmoddi4+0xa0>
 800034c:	b902      	cbnz	r2, 8000350 <__udivmoddi4+0xe8>
 800034e:	deff      	udf	#255	; 0xff
 8000350:	fab2 f282 	clz	r2, r2
 8000354:	2a00      	cmp	r2, #0
 8000356:	f040 808f 	bne.w	8000478 <__udivmoddi4+0x210>
 800035a:	1b49      	subs	r1, r1, r5
 800035c:	ea4f 4e15 	mov.w	lr, r5, lsr #16
 8000360:	fa1f f885 	uxth.w	r8, r5
 8000364:	2701      	movs	r7, #1
 8000366:	fbb1 fcfe 	udiv	ip, r1, lr
 800036a:	0c23      	lsrs	r3, r4, #16
 800036c:	fb0e 111c 	mls	r1, lr, ip, r1
 8000370:	ea43 4301 	orr.w	r3, r3, r1, lsl #16
 8000374:	fb08 f10c 	mul.w	r1, r8, ip
 8000378:	4299      	cmp	r1, r3
 800037a:	d907      	bls.n	800038c <__udivmoddi4+0x124>
 800037c:	18eb      	adds	r3, r5, r3
 800037e:	f10c 30ff 	add.w	r0, ip, #4294967295
 8000382:	d202      	bcs.n	800038a <__udivmoddi4+0x122>
 8000384:	4299      	cmp	r1, r3
 8000386:	f200 80cd 	bhi.w	8000524 <__udivmoddi4+0x2bc>
 800038a:	4684      	mov	ip, r0
 800038c:	1a59      	subs	r1, r3, r1
 800038e:	b2a3      	uxth	r3, r4
 8000390:	fbb1 f0fe 	udiv	r0, r1, lr
 8000394:	fb0e 1410 	mls	r4, lr, r0, r1
 8000398:	ea43 4404 	orr.w	r4, r3, r4, lsl #16
 800039c:	fb08 f800 	mul.w	r8, r8, r0
 80003a0:	45a0      	cmp	r8, r4
 80003a2:	d907      	bls.n	80003b4 <__udivmoddi4+0x14c>
 80003a4:	192c      	adds	r4, r5, r4
 80003a6:	f100 33ff 	add.w	r3, r0, #4294967295
 80003aa:	d202      	bcs.n	80003b2 <__udivmoddi4+0x14a>
 80003ac:	45a0      	cmp	r8, r4
 80003ae:	f200 80b6 	bhi.w	800051e <__udivmoddi4+0x2b6>
 80003b2:	4618      	mov	r0, r3
 80003b4:	eba4 0408 	sub.w	r4, r4, r8
 80003b8:	ea40 400c 	orr.w	r0, r0, ip, lsl #16
 80003bc:	e79f      	b.n	80002fe <__udivmoddi4+0x96>
 80003be:	f1c7 0c20 	rsb	ip, r7, #32
 80003c2:	40bb      	lsls	r3, r7
 80003c4:	fa22 fe0c 	lsr.w	lr, r2, ip
 80003c8:	ea4e 0e03 	orr.w	lr, lr, r3
 80003cc:	fa01 f407 	lsl.w	r4, r1, r7
 80003d0:	fa20 f50c 	lsr.w	r5, r0, ip
 80003d4:	fa21 f30c 	lsr.w	r3, r1, ip
 80003d8:	ea4f 481e 	mov.w	r8, lr, lsr #16
 80003dc:	4325      	orrs	r5, r4
 80003de:	fbb3 f9f8 	udiv	r9, r3, r8
 80003e2:	0c2c      	lsrs	r4, r5, #16
 80003e4:	fb08 3319 	mls	r3, r8, r9, r3
 80003e8:	fa1f fa8e 	uxth.w	sl, lr
 80003ec:	ea44 4303 	orr.w	r3, r4, r3, lsl #16
 80003f0:	fb09 f40a 	mul.w	r4, r9, sl
 80003f4:	429c      	cmp	r4, r3
 80003f6:	fa02 f207 	lsl.w	r2, r2, r7
 80003fa:	fa00 f107 	lsl.w	r1, r0, r7
 80003fe:	d90b      	bls.n	8000418 <__udivmoddi4+0x1b0>
 8000400:	eb1e 0303 	adds.w	r3, lr, r3
 8000404:	f109 30ff 	add.w	r0, r9, #4294967295
 8000408:	f080 8087 	bcs.w	800051a <__udivmoddi4+0x2b2>
 800040c:	429c      	cmp	r4, r3
 800040e:	f240 8084 	bls.w	800051a <__udivmoddi4+0x2b2>
 8000412:	f1a9 0902 	sub.w	r9, r9, #2
 8000416:	4473      	add	r3, lr
 8000418:	1b1b      	subs	r3, r3, r4
 800041a:	b2ad      	uxth	r5, r5
 800041c:	fbb3 f0f8 	udiv	r0, r3, r8
 8000420:	fb08 3310 	mls	r3, r8, r0, r3
 8000424:	ea45 4403 	orr.w	r4, r5, r3, lsl #16
 8000428:	fb00 fa0a 	mul.w	sl, r0, sl
 800042c:	45a2      	cmp	sl, r4
 800042e:	d908      	bls.n	8000442 <__udivmoddi4+0x1da>
 8000430:	eb1e 0404 	adds.w	r4, lr, r4
 8000434:	f100 33ff 	add.w	r3, r0, #4294967295
 8000438:	d26b      	bcs.n	8000512 <__udivmoddi4+0x2aa>
 800043a:	45a2      	cmp	sl, r4
 800043c:	d969      	bls.n	8000512 <__udivmoddi4+0x2aa>
 800043e:	3802      	subs	r0, #2
 8000440:	4474      	add	r4, lr
 8000442:	ea40 4009 	orr.w	r0, r0, r9, lsl #16
 8000446:	fba0 8902 	umull	r8, r9, r0, r2
 800044a:	eba4 040a 	sub.w	r4, r4, sl
 800044e:	454c      	cmp	r4, r9
 8000450:	46c2      	mov	sl, r8
 8000452:	464b      	mov	r3, r9
 8000454:	d354      	bcc.n	8000500 <__udivmoddi4+0x298>
 8000456:	d051      	beq.n	80004fc <__udivmoddi4+0x294>
 8000458:	2e00      	cmp	r6, #0
 800045a:	d069      	beq.n	8000530 <__udivmoddi4+0x2c8>
 800045c:	ebb1 050a 	subs.w	r5, r1, sl
 8000460:	eb64 0403 	sbc.w	r4, r4, r3
 8000464:	fa04 fc0c 	lsl.w	ip, r4, ip
 8000468:	40fd      	lsrs	r5, r7
 800046a:	40fc      	lsrs	r4, r7
 800046c:	ea4c 0505 	orr.w	r5, ip, r5
 8000470:	e9c6 5400 	strd	r5, r4, [r6]
 8000474:	2700      	movs	r7, #0
 8000476:	e747      	b.n	8000308 <__udivmoddi4+0xa0>
 8000478:	f1c2 0320 	rsb	r3, r2, #32
 800047c:	fa20 f703 	lsr.w	r7, r0, r3
 8000480:	4095      	lsls	r5, r2
 8000482:	fa01 f002 	lsl.w	r0, r1, r2
 8000486:	fa21 f303 	lsr.w	r3, r1, r3
 800048a:	ea4f 4e15 	mov.w	lr, r5, lsr #16
 800048e:	4338      	orrs	r0, r7
 8000490:	0c01      	lsrs	r1, r0, #16
 8000492:	fbb3 f7fe 	udiv	r7, r3, lr
 8000496:	fa1f f885 	uxth.w	r8, r5
 800049a:	fb0e 3317 	mls	r3, lr, r7, r3
 800049e:	ea41 4103 	orr.w	r1, r1, r3, lsl #16
 80004a2:	fb07 f308 	mul.w	r3, r7, r8
 80004a6:	428b      	cmp	r3, r1
 80004a8:	fa04 f402 	lsl.w	r4, r4, r2
 80004ac:	d907      	bls.n	80004be <__udivmoddi4+0x256>
 80004ae:	1869      	adds	r1, r5, r1
 80004b0:	f107 3cff 	add.w	ip, r7, #4294967295
 80004b4:	d22f      	bcs.n	8000516 <__udivmoddi4+0x2ae>
 80004b6:	428b      	cmp	r3, r1
 80004b8:	d92d      	bls.n	8000516 <__udivmoddi4+0x2ae>
 80004ba:	3f02      	subs	r7, #2
 80004bc:	4429      	add	r1, r5
 80004be:	1acb      	subs	r3, r1, r3
 80004c0:	b281      	uxth	r1, r0
 80004c2:	fbb3 f0fe 	udiv	r0, r3, lr
 80004c6:	fb0e 3310 	mls	r3, lr, r0, r3
 80004ca:	ea41 4103 	orr.w	r1, r1, r3, lsl #16
 80004ce:	fb00 f308 	mul.w	r3, r0, r8
 80004d2:	428b      	cmp	r3, r1
 80004d4:	d907      	bls.n	80004e6 <__udivmoddi4+0x27e>
 80004d6:	1869      	adds	r1, r5, r1
 80004d8:	f100 3cff 	add.w	ip, r0, #4294967295
 80004dc:	d217      	bcs.n	800050e <__udivmoddi4+0x2a6>
 80004de:	428b      	cmp	r3, r1
 80004e0:	d915      	bls.n	800050e <__udivmoddi4+0x2a6>
 80004e2:	3802      	subs	r0, #2
 80004e4:	4429      	add	r1, r5
 80004e6:	1ac9      	subs	r1, r1, r3
 80004e8:	ea40 4707 	orr.w	r7, r0, r7, lsl #16
 80004ec:	e73b      	b.n	8000366 <__udivmoddi4+0xfe>
 80004ee:	4637      	mov	r7, r6
 80004f0:	4630      	mov	r0, r6
 80004f2:	e709      	b.n	8000308 <__udivmoddi4+0xa0>
 80004f4:	4607      	mov	r7, r0
 80004f6:	e6e7      	b.n	80002c8 <__udivmoddi4+0x60>
 80004f8:	4618      	mov	r0, r3
 80004fa:	e6fb      	b.n	80002f4 <__udivmoddi4+0x8c>
 80004fc:	4541      	cmp	r1, r8
 80004fe:	d2ab      	bcs.n	8000458 <__udivmoddi4+0x1f0>
 8000500:	ebb8 0a02 	subs.w	sl, r8, r2
 8000504:	eb69 020e 	sbc.w	r2, r9, lr
 8000508:	3801      	subs	r0, #1
 800050a:	4613      	mov	r3, r2
 800050c:	e7a4      	b.n	8000458 <__udivmoddi4+0x1f0>
 800050e:	4660      	mov	r0, ip
 8000510:	e7e9      	b.n	80004e6 <__udivmoddi4+0x27e>
 8000512:	4618      	mov	r0, r3
 8000514:	e795      	b.n	8000442 <__udivmoddi4+0x1da>
 8000516:	4667      	mov	r7, ip
 8000518:	e7d1      	b.n	80004be <__udivmoddi4+0x256>
 800051a:	4681      	mov	r9, r0
 800051c:	e77c      	b.n	8000418 <__udivmoddi4+0x1b0>
 800051e:	3802      	subs	r0, #2
 8000520:	442c      	add	r4, r5
 8000522:	e747      	b.n	80003b4 <__udivmoddi4+0x14c>
 8000524:	f1ac 0c02 	sub.w	ip, ip, #2
 8000528:	442b      	add	r3, r5
 800052a:	e72f      	b.n	800038c <__udivmoddi4+0x124>
 800052c:	4638      	mov	r0, r7
 800052e:	e708      	b.n	8000342 <__udivmoddi4+0xda>
 8000530:	4637      	mov	r7, r6
 8000532:	e6e9      	b.n	8000308 <__udivmoddi4+0xa0>

08000534 <__aeabi_idiv0>:
 8000534:	4770      	bx	lr
 8000536:	bf00      	nop

08000538 <HAL_InitTick>:
 8000538:	4a0e      	ldr	r2, [pc, #56]	; (8000574 <HAL_InitTick+0x3c>)
 800053a:	f44f 737a 	mov.w	r3, #1000	; 0x3e8
 800053e:	490e      	ldr	r1, [pc, #56]	; (8000578 <HAL_InitTick+0x40>)
 8000540:	7812      	ldrb	r2, [r2, #0]
 8000542:	fbb3 f3f2 	udiv	r3, r3, r2
 8000546:	b510      	push	{r4, lr}
 8000548:	4604      	mov	r4, r0
 800054a:	6808      	ldr	r0, [r1, #0]
 800054c:	fbb0 f0f3 	udiv	r0, r0, r3
 8000550:	f000 f87e 	bl	8000650 <HAL_SYSTICK_Config>
 8000554:	b908      	cbnz	r0, 800055a <HAL_InitTick+0x22>
 8000556:	2c0f      	cmp	r4, #15
 8000558:	d901      	bls.n	800055e <HAL_InitTick+0x26>
 800055a:	2001      	movs	r0, #1
 800055c:	bd10      	pop	{r4, pc}
 800055e:	2200      	movs	r2, #0
 8000560:	4621      	mov	r1, r4
 8000562:	f04f 30ff 	mov.w	r0, #4294967295
 8000566:	f000 f83d 	bl	80005e4 <HAL_NVIC_SetPriority>
 800056a:	4b04      	ldr	r3, [pc, #16]	; (800057c <HAL_InitTick+0x44>)
 800056c:	2000      	movs	r0, #0
 800056e:	601c      	str	r4, [r3, #0]
 8000570:	bd10      	pop	{r4, pc}
 8000572:	bf00      	nop
 8000574:	20000000 	.word	0x20000000
 8000578:	20000008 	.word	0x20000008
 800057c:	20000004 	.word	0x20000004

08000580 <HAL_Init>:
 8000580:	b508      	push	{r3, lr}
 8000582:	2003      	movs	r0, #3
 8000584:	f000 f81a 	bl	80005bc <HAL_NVIC_SetPriorityGrouping>
 8000588:	2000      	movs	r0, #0
 800058a:	f7ff ffd5 	bl	8000538 <HAL_InitTick>
 800058e:	f000 fc99 	bl	8000ec4 <HAL_MspInit>
 8000592:	2000      	movs	r0, #0
 8000594:	bd08      	pop	{r3, pc}
 8000596:	bf00      	nop

08000598 <HAL_IncTick>:
 8000598:	4a03      	ldr	r2, [pc, #12]	; (80005a8 <HAL_IncTick+0x10>)
 800059a:	4b04      	ldr	r3, [pc, #16]	; (80005ac <HAL_IncTick+0x14>)
 800059c:	6811      	ldr	r1, [r2, #0]
 800059e:	781b      	ldrb	r3, [r3, #0]
 80005a0:	440b      	add	r3, r1
 80005a2:	6013      	str	r3, [r2, #0]
 80005a4:	4770      	bx	lr
 80005a6:	bf00      	nop
 80005a8:	20000028 	.word	0x20000028
 80005ac:	20000000 	.word	0x20000000

080005b0 <HAL_GetTick>:
 80005b0:	4b01      	ldr	r3, [pc, #4]	; (80005b8 <HAL_GetTick+0x8>)
 80005b2:	6818      	ldr	r0, [r3, #0]
 80005b4:	4770      	bx	lr
 80005b6:	bf00      	nop
 80005b8:	20000028 	.word	0x20000028

080005bc <HAL_NVIC_SetPriorityGrouping>:
 80005bc:	4907      	ldr	r1, [pc, #28]	; (80005dc <HAL_NVIC_SetPriorityGrouping+0x20>)
 80005be:	0200      	lsls	r0, r0, #8
 80005c0:	4b07      	ldr	r3, [pc, #28]	; (80005e0 <HAL_NVIC_SetPriorityGrouping+0x24>)
 80005c2:	68ca      	ldr	r2, [r1, #12]
 80005c4:	f400 60e0 	and.w	r0, r0, #1792	; 0x700
 80005c8:	b410      	push	{r4}
 80005ca:	f64f 04ff 	movw	r4, #63743	; 0xf8ff
 80005ce:	4022      	ands	r2, r4
 80005d0:	f85d 4b04 	ldr.w	r4, [sp], #4
 80005d4:	4313      	orrs	r3, r2
 80005d6:	4318      	orrs	r0, r3
 80005d8:	60c8      	str	r0, [r1, #12]
 80005da:	4770      	bx	lr
 80005dc:	e000ed00 	.word	0xe000ed00
 80005e0:	05fa0000 	.word	0x05fa0000

080005e4 <HAL_NVIC_SetPriority>:
 80005e4:	4b17      	ldr	r3, [pc, #92]	; (8000644 <HAL_NVIC_SetPriority+0x60>)
 80005e6:	68db      	ldr	r3, [r3, #12]
 80005e8:	f3c3 2302 	ubfx	r3, r3, #8, #3
 80005ec:	b430      	push	{r4, r5}
 80005ee:	f1c3 0507 	rsb	r5, r3, #7
 80005f2:	1d1c      	adds	r4, r3, #4
 80005f4:	2d04      	cmp	r5, #4
 80005f6:	bf28      	it	cs
 80005f8:	2504      	movcs	r5, #4
 80005fa:	2c06      	cmp	r4, #6
 80005fc:	d918      	bls.n	8000630 <HAL_NVIC_SetPriority+0x4c>
 80005fe:	3b03      	subs	r3, #3
 8000600:	f04f 34ff 	mov.w	r4, #4294967295
 8000604:	409c      	lsls	r4, r3
 8000606:	ea22 0404 	bic.w	r4, r2, r4
 800060a:	f04f 32ff 	mov.w	r2, #4294967295
 800060e:	2800      	cmp	r0, #0
 8000610:	fa02 f205 	lsl.w	r2, r2, r5
 8000614:	ea21 0102 	bic.w	r1, r1, r2
 8000618:	fa01 f203 	lsl.w	r2, r1, r3
 800061c:	ea42 0204 	orr.w	r2, r2, r4
 8000620:	ea4f 1202 	mov.w	r2, r2, lsl #4
 8000624:	b2d2      	uxtb	r2, r2
 8000626:	db06      	blt.n	8000636 <HAL_NVIC_SetPriority+0x52>
 8000628:	4b07      	ldr	r3, [pc, #28]	; (8000648 <HAL_NVIC_SetPriority+0x64>)
 800062a:	541a      	strb	r2, [r3, r0]
 800062c:	bc30      	pop	{r4, r5}
 800062e:	4770      	bx	lr
 8000630:	2400      	movs	r4, #0
 8000632:	4623      	mov	r3, r4
 8000634:	e7e9      	b.n	800060a <HAL_NVIC_SetPriority+0x26>
 8000636:	f000 000f 	and.w	r0, r0, #15
 800063a:	4b04      	ldr	r3, [pc, #16]	; (800064c <HAL_NVIC_SetPriority+0x68>)
 800063c:	541a      	strb	r2, [r3, r0]
 800063e:	bc30      	pop	{r4, r5}
 8000640:	4770      	bx	lr
 8000642:	bf00      	nop
 8000644:	e000ed00 	.word	0xe000ed00
 8000648:	e000e400 	.word	0xe000e400
 800064c:	e000ed14 	.word	0xe000ed14

08000650 <HAL_SYSTICK_Config>:
 8000650:	3801      	subs	r0, #1
 8000652:	f1b0 7f80 	cmp.w	r0, #16777216	; 0x1000000
 8000656:	d20d      	bcs.n	8000674 <HAL_SYSTICK_Config+0x24>
 8000658:	4b07      	ldr	r3, [pc, #28]	; (8000678 <HAL_SYSTICK_Config+0x28>)
 800065a:	2200      	movs	r2, #0
 800065c:	2107      	movs	r1, #7
 800065e:	b430      	push	{r4, r5}
 8000660:	25f0      	movs	r5, #240	; 0xf0
 8000662:	4c06      	ldr	r4, [pc, #24]	; (800067c <HAL_SYSTICK_Config+0x2c>)
 8000664:	6058      	str	r0, [r3, #4]
 8000666:	4610      	mov	r0, r2
 8000668:	f884 5023 	strb.w	r5, [r4, #35]	; 0x23
 800066c:	609a      	str	r2, [r3, #8]
 800066e:	6019      	str	r1, [r3, #0]
 8000670:	bc30      	pop	{r4, r5}
 8000672:	4770      	bx	lr
 8000674:	2001      	movs	r0, #1
 8000676:	4770      	bx	lr
 8000678:	e000e010 	.word	0xe000e010
 800067c:	e000ed00 	.word	0xe000ed00

08000680 <HAL_GPIO_Init>:
 8000680:	e92d 4ff0 	stmdb	sp!, {r4, r5, r6, r7, r8, r9, sl, fp, lr}
 8000684:	f8df c22c 	ldr.w	ip, [pc, #556]	; 80008b4 <HAL_GPIO_Init+0x234>
 8000688:	b083      	sub	sp, #12
 800068a:	468e      	mov	lr, r1
 800068c:	2500      	movs	r5, #0
 800068e:	f8df 9228 	ldr.w	r9, [pc, #552]	; 80008b8 <HAL_GPIO_Init+0x238>
 8000692:	f8d1 8000 	ldr.w	r8, [r1]
 8000696:	e003      	b.n	80006a0 <HAL_GPIO_Init+0x20>
 8000698:	3501      	adds	r5, #1
 800069a:	2d10      	cmp	r5, #16
 800069c:	f000 80b6 	beq.w	800080c <HAL_GPIO_Init+0x18c>
 80006a0:	2301      	movs	r3, #1
 80006a2:	40ab      	lsls	r3, r5
 80006a4:	ea08 0103 	and.w	r1, r8, r3
 80006a8:	428b      	cmp	r3, r1
 80006aa:	d1f5      	bne.n	8000698 <HAL_GPIO_Init+0x18>
 80006ac:	f8de 4004 	ldr.w	r4, [lr, #4]
 80006b0:	f024 0710 	bic.w	r7, r4, #16
 80006b4:	2f02      	cmp	r7, #2
 80006b6:	f040 80ac 	bne.w	8000812 <HAL_GPIO_Init+0x192>
 80006ba:	08ef      	lsrs	r7, r5, #3
 80006bc:	f005 0a07 	and.w	sl, r5, #7
 80006c0:	f04f 0b0f 	mov.w	fp, #15
 80006c4:	f8de 2010 	ldr.w	r2, [lr, #16]
 80006c8:	eb00 0787 	add.w	r7, r0, r7, lsl #2
 80006cc:	ea4f 0a8a 	mov.w	sl, sl, lsl #2
 80006d0:	6a3e      	ldr	r6, [r7, #32]
 80006d2:	fa0b fb0a 	lsl.w	fp, fp, sl
 80006d6:	fa02 f20a 	lsl.w	r2, r2, sl
 80006da:	ea4f 0a45 	mov.w	sl, r5, lsl #1
 80006de:	ea26 060b 	bic.w	r6, r6, fp
 80006e2:	f04f 0b03 	mov.w	fp, #3
 80006e6:	4332      	orrs	r2, r6
 80006e8:	fa0b fb0a 	lsl.w	fp, fp, sl
 80006ec:	f004 0603 	and.w	r6, r4, #3
 80006f0:	623a      	str	r2, [r7, #32]
 80006f2:	ea6f 020b 	mvn.w	r2, fp
 80006f6:	6807      	ldr	r7, [r0, #0]
 80006f8:	fa06 f60a 	lsl.w	r6, r6, sl
 80006fc:	4017      	ands	r7, r2
 80006fe:	433e      	orrs	r6, r7
 8000700:	6006      	str	r6, [r0, #0]
 8000702:	6886      	ldr	r6, [r0, #8]
 8000704:	f3c4 1700 	ubfx	r7, r4, #4, #1
 8000708:	ea06 0b02 	and.w	fp, r6, r2
 800070c:	f8de 600c 	ldr.w	r6, [lr, #12]
 8000710:	40af      	lsls	r7, r5
 8000712:	fa06 f60a 	lsl.w	r6, r6, sl
 8000716:	ea46 060b 	orr.w	r6, r6, fp
 800071a:	6086      	str	r6, [r0, #8]
 800071c:	6846      	ldr	r6, [r0, #4]
 800071e:	ea26 0303 	bic.w	r3, r6, r3
 8000722:	431f      	orrs	r7, r3
 8000724:	6047      	str	r7, [r0, #4]
 8000726:	68c6      	ldr	r6, [r0, #12]
 8000728:	00e7      	lsls	r7, r4, #3
 800072a:	f8de 3008 	ldr.w	r3, [lr, #8]
 800072e:	ea02 0206 	and.w	r2, r2, r6
 8000732:	fa03 f30a 	lsl.w	r3, r3, sl
 8000736:	ea43 0302 	orr.w	r3, r3, r2
 800073a:	60c3      	str	r3, [r0, #12]
 800073c:	d5ac      	bpl.n	8000698 <HAL_GPIO_Init+0x18>
 800073e:	f8d9 6044 	ldr.w	r6, [r9, #68]	; 0x44
 8000742:	f025 0703 	bic.w	r7, r5, #3
 8000746:	f005 0303 	and.w	r3, r5, #3
 800074a:	220f      	movs	r2, #15
 800074c:	f446 4680 	orr.w	r6, r6, #16384	; 0x4000
 8000750:	f107 4780 	add.w	r7, r7, #1073741824	; 0x40000000
 8000754:	009b      	lsls	r3, r3, #2
 8000756:	f8c9 6044 	str.w	r6, [r9, #68]	; 0x44
 800075a:	f507 379c 	add.w	r7, r7, #79872	; 0x13800
 800075e:	f8d9 6044 	ldr.w	r6, [r9, #68]	; 0x44
 8000762:	fa02 fa03 	lsl.w	sl, r2, r3
 8000766:	f406 4680 	and.w	r6, r6, #16384	; 0x4000
 800076a:	9601      	str	r6, [sp, #4]
 800076c:	4e48      	ldr	r6, [pc, #288]	; (8000890 <HAL_GPIO_Init+0x210>)
 800076e:	9a01      	ldr	r2, [sp, #4]
 8000770:	42b0      	cmp	r0, r6
 8000772:	68ba      	ldr	r2, [r7, #8]
 8000774:	ea22 020a 	bic.w	r2, r2, sl
 8000778:	d020      	beq.n	80007bc <HAL_GPIO_Init+0x13c>
 800077a:	f506 6680 	add.w	r6, r6, #1024	; 0x400
 800077e:	42b0      	cmp	r0, r6
 8000780:	d05e      	beq.n	8000840 <HAL_GPIO_Init+0x1c0>
 8000782:	4e44      	ldr	r6, [pc, #272]	; (8000894 <HAL_GPIO_Init+0x214>)
 8000784:	42b0      	cmp	r0, r6
 8000786:	d060      	beq.n	800084a <HAL_GPIO_Init+0x1ca>
 8000788:	4e43      	ldr	r6, [pc, #268]	; (8000898 <HAL_GPIO_Init+0x218>)
 800078a:	42b0      	cmp	r0, r6
 800078c:	d062      	beq.n	8000854 <HAL_GPIO_Init+0x1d4>
 800078e:	4e43      	ldr	r6, [pc, #268]	; (800089c <HAL_GPIO_Init+0x21c>)
 8000790:	42b0      	cmp	r0, r6
 8000792:	d064      	beq.n	800085e <HAL_GPIO_Init+0x1de>
 8000794:	4e42      	ldr	r6, [pc, #264]	; (80008a0 <HAL_GPIO_Init+0x220>)
 8000796:	42b0      	cmp	r0, r6
 8000798:	d06b      	beq.n	8000872 <HAL_GPIO_Init+0x1f2>
 800079a:	4e42      	ldr	r6, [pc, #264]	; (80008a4 <HAL_GPIO_Init+0x224>)
 800079c:	42b0      	cmp	r0, r6
 800079e:	d06d      	beq.n	800087c <HAL_GPIO_Init+0x1fc>
 80007a0:	4e41      	ldr	r6, [pc, #260]	; (80008a8 <HAL_GPIO_Init+0x228>)
 80007a2:	42b0      	cmp	r0, r6
 80007a4:	d060      	beq.n	8000868 <HAL_GPIO_Init+0x1e8>
 80007a6:	4e41      	ldr	r6, [pc, #260]	; (80008ac <HAL_GPIO_Init+0x22c>)
 80007a8:	42b0      	cmp	r0, r6
 80007aa:	d06c      	beq.n	8000886 <HAL_GPIO_Init+0x206>
 80007ac:	4e40      	ldr	r6, [pc, #256]	; (80008b0 <HAL_GPIO_Init+0x230>)
 80007ae:	42b0      	cmp	r0, r6
 80007b0:	bf0c      	ite	eq
 80007b2:	2609      	moveq	r6, #9
 80007b4:	260a      	movne	r6, #10
 80007b6:	fa06 f303 	lsl.w	r3, r6, r3
 80007ba:	431a      	orrs	r2, r3
 80007bc:	60ba      	str	r2, [r7, #8]
 80007be:	03e6      	lsls	r6, r4, #15
 80007c0:	f8dc 3000 	ldr.w	r3, [ip]
 80007c4:	ea6f 0201 	mvn.w	r2, r1
 80007c8:	f105 0501 	add.w	r5, r5, #1
 80007cc:	bf54      	ite	pl
 80007ce:	4013      	andpl	r3, r2
 80007d0:	430b      	orrmi	r3, r1
 80007d2:	03a7      	lsls	r7, r4, #14
 80007d4:	f8cc 3000 	str.w	r3, [ip]
 80007d8:	f8dc 3004 	ldr.w	r3, [ip, #4]
 80007dc:	bf54      	ite	pl
 80007de:	4013      	andpl	r3, r2
 80007e0:	430b      	orrmi	r3, r1
 80007e2:	02e6      	lsls	r6, r4, #11
 80007e4:	f8cc 3004 	str.w	r3, [ip, #4]
 80007e8:	f8dc 3008 	ldr.w	r3, [ip, #8]
 80007ec:	bf54      	ite	pl
 80007ee:	4013      	andpl	r3, r2
 80007f0:	430b      	orrmi	r3, r1
 80007f2:	02a4      	lsls	r4, r4, #10
 80007f4:	f8cc 3008 	str.w	r3, [ip, #8]
 80007f8:	f8dc 300c 	ldr.w	r3, [ip, #12]
 80007fc:	bf54      	ite	pl
 80007fe:	4013      	andpl	r3, r2
 8000800:	430b      	orrmi	r3, r1
 8000802:	2d10      	cmp	r5, #16
 8000804:	f8cc 300c 	str.w	r3, [ip, #12]
 8000808:	f47f af4a 	bne.w	80006a0 <HAL_GPIO_Init+0x20>
 800080c:	b003      	add	sp, #12
 800080e:	e8bd 8ff0 	ldmia.w	sp!, {r4, r5, r6, r7, r8, r9, sl, fp, pc}
 8000812:	ea4f 0a45 	mov.w	sl, r5, lsl #1
 8000816:	2203      	movs	r2, #3
 8000818:	f8d0 b000 	ldr.w	fp, [r0]
 800081c:	3f01      	subs	r7, #1
 800081e:	ea04 0602 	and.w	r6, r4, r2
 8000822:	fa02 f20a 	lsl.w	r2, r2, sl
 8000826:	2f01      	cmp	r7, #1
 8000828:	ea6f 0202 	mvn.w	r2, r2
 800082c:	fa06 f60a 	lsl.w	r6, r6, sl
 8000830:	ea02 0b0b 	and.w	fp, r2, fp
 8000834:	ea46 060b 	orr.w	r6, r6, fp
 8000838:	6006      	str	r6, [r0, #0]
 800083a:	f63f af74 	bhi.w	8000726 <HAL_GPIO_Init+0xa6>
 800083e:	e760      	b.n	8000702 <HAL_GPIO_Init+0x82>
 8000840:	2601      	movs	r6, #1
 8000842:	fa06 f303 	lsl.w	r3, r6, r3
 8000846:	431a      	orrs	r2, r3
 8000848:	e7b8      	b.n	80007bc <HAL_GPIO_Init+0x13c>
 800084a:	2602      	movs	r6, #2
 800084c:	fa06 f303 	lsl.w	r3, r6, r3
 8000850:	431a      	orrs	r2, r3
 8000852:	e7b3      	b.n	80007bc <HAL_GPIO_Init+0x13c>
 8000854:	2603      	movs	r6, #3
 8000856:	fa06 f303 	lsl.w	r3, r6, r3
 800085a:	431a      	orrs	r2, r3
 800085c:	e7ae      	b.n	80007bc <HAL_GPIO_Init+0x13c>
 800085e:	2604      	movs	r6, #4
 8000860:	fa06 f303 	lsl.w	r3, r6, r3
 8000864:	431a      	orrs	r2, r3
 8000866:	e7a9      	b.n	80007bc <HAL_GPIO_Init+0x13c>
 8000868:	2607      	movs	r6, #7
 800086a:	fa06 f303 	lsl.w	r3, r6, r3
 800086e:	431a      	orrs	r2, r3
 8000870:	e7a4      	b.n	80007bc <HAL_GPIO_Init+0x13c>
 8000872:	2605      	movs	r6, #5
 8000874:	fa06 f303 	lsl.w	r3, r6, r3
 8000878:	431a      	orrs	r2, r3
 800087a:	e79f      	b.n	80007bc <HAL_GPIO_Init+0x13c>
 800087c:	2606      	movs	r6, #6
 800087e:	fa06 f303 	lsl.w	r3, r6, r3
 8000882:	431a      	orrs	r2, r3
 8000884:	e79a      	b.n	80007bc <HAL_GPIO_Init+0x13c>
 8000886:	2608      	movs	r6, #8
 8000888:	fa06 f303 	lsl.w	r3, r6, r3
 800088c:	431a      	orrs	r2, r3
 800088e:	e795      	b.n	80007bc <HAL_GPIO_Init+0x13c>
 8000890:	40020000 	.word	0x40020000
 8000894:	40020800 	.word	0x40020800
 8000898:	40020c00 	.word	0x40020c00
 800089c:	40021000 	.word	0x40021000
 80008a0:	40021400 	.word	0x40021400
 80008a4:	40021800 	.word	0x40021800
 80008a8:	40021c00 	.word	0x40021c00
 80008ac:	40022000 	.word	0x40022000
 80008b0:	40022400 	.word	0x40022400
 80008b4:	40013c00 	.word	0x40013c00
 80008b8:	40023800 	.word	0x40023800

080008bc <HAL_GPIO_WritePin>:
 80008bc:	b902      	cbnz	r2, 80008c0 <HAL_GPIO_WritePin+0x4>
 80008be:	0409      	lsls	r1, r1, #16
 80008c0:	6181      	str	r1, [r0, #24]
 80008c2:	4770      	bx	lr

080008c4 <HAL_RCC_OscConfig>:
 80008c4:	2800      	cmp	r0, #0
 80008c6:	f000 8134 	beq.w	8000b32 <HAL_RCC_OscConfig+0x26e>
 80008ca:	6803      	ldr	r3, [r0, #0]
 80008cc:	e92d 41f0 	stmdb	sp!, {r4, r5, r6, r7, r8, lr}
 80008d0:	07dd      	lsls	r5, r3, #31
 80008d2:	b082      	sub	sp, #8
 80008d4:	4604      	mov	r4, r0
 80008d6:	d535      	bpl.n	8000944 <HAL_RCC_OscConfig+0x80>
 80008d8:	49ab      	ldr	r1, [pc, #684]	; (8000b88 <HAL_RCC_OscConfig+0x2c4>)
 80008da:	688a      	ldr	r2, [r1, #8]
 80008dc:	f002 020c 	and.w	r2, r2, #12
 80008e0:	2a04      	cmp	r2, #4
 80008e2:	f000 80fe 	beq.w	8000ae2 <HAL_RCC_OscConfig+0x21e>
 80008e6:	688a      	ldr	r2, [r1, #8]
 80008e8:	f002 020c 	and.w	r2, r2, #12
 80008ec:	2a08      	cmp	r2, #8
 80008ee:	f000 80f4 	beq.w	8000ada <HAL_RCC_OscConfig+0x216>
 80008f2:	6863      	ldr	r3, [r4, #4]
 80008f4:	f5b3 3f80 	cmp.w	r3, #65536	; 0x10000
 80008f8:	d010      	beq.n	800091c <HAL_RCC_OscConfig+0x58>
 80008fa:	2b00      	cmp	r3, #0
 80008fc:	f000 811b 	beq.w	8000b36 <HAL_RCC_OscConfig+0x272>
 8000900:	f5b3 2fa0 	cmp.w	r3, #327680	; 0x50000
 8000904:	4ba0      	ldr	r3, [pc, #640]	; (8000b88 <HAL_RCC_OscConfig+0x2c4>)
 8000906:	681a      	ldr	r2, [r3, #0]
 8000908:	f000 8162 	beq.w	8000bd0 <HAL_RCC_OscConfig+0x30c>
 800090c:	f422 3280 	bic.w	r2, r2, #65536	; 0x10000
 8000910:	601a      	str	r2, [r3, #0]
 8000912:	681a      	ldr	r2, [r3, #0]
 8000914:	f422 2280 	bic.w	r2, r2, #262144	; 0x40000
 8000918:	601a      	str	r2, [r3, #0]
 800091a:	e004      	b.n	8000926 <HAL_RCC_OscConfig+0x62>
 800091c:	4a9a      	ldr	r2, [pc, #616]	; (8000b88 <HAL_RCC_OscConfig+0x2c4>)
 800091e:	6813      	ldr	r3, [r2, #0]
 8000920:	f443 3380 	orr.w	r3, r3, #65536	; 0x10000
 8000924:	6013      	str	r3, [r2, #0]
 8000926:	f7ff fe43 	bl	80005b0 <HAL_GetTick>
 800092a:	4d97      	ldr	r5, [pc, #604]	; (8000b88 <HAL_RCC_OscConfig+0x2c4>)
 800092c:	4606      	mov	r6, r0
 800092e:	e005      	b.n	800093c <HAL_RCC_OscConfig+0x78>
 8000930:	f7ff fe3e 	bl	80005b0 <HAL_GetTick>
 8000934:	1b80      	subs	r0, r0, r6
 8000936:	2864      	cmp	r0, #100	; 0x64
 8000938:	f200 80ee 	bhi.w	8000b18 <HAL_RCC_OscConfig+0x254>
 800093c:	682b      	ldr	r3, [r5, #0]
 800093e:	039a      	lsls	r2, r3, #14
 8000940:	d5f6      	bpl.n	8000930 <HAL_RCC_OscConfig+0x6c>
 8000942:	6823      	ldr	r3, [r4, #0]
 8000944:	079f      	lsls	r7, r3, #30
 8000946:	d442      	bmi.n	80009ce <HAL_RCC_OscConfig+0x10a>
 8000948:	071a      	lsls	r2, r3, #28
 800094a:	d517      	bpl.n	800097c <HAL_RCC_OscConfig+0xb8>
 800094c:	6963      	ldr	r3, [r4, #20]
 800094e:	2b00      	cmp	r3, #0
 8000950:	f000 80b0 	beq.w	8000ab4 <HAL_RCC_OscConfig+0x1f0>
 8000954:	4b8c      	ldr	r3, [pc, #560]	; (8000b88 <HAL_RCC_OscConfig+0x2c4>)
 8000956:	6f5a      	ldr	r2, [r3, #116]	; 0x74
 8000958:	461d      	mov	r5, r3
 800095a:	f042 0201 	orr.w	r2, r2, #1
 800095e:	675a      	str	r2, [r3, #116]	; 0x74
 8000960:	f7ff fe26 	bl	80005b0 <HAL_GetTick>
 8000964:	4606      	mov	r6, r0
 8000966:	e005      	b.n	8000974 <HAL_RCC_OscConfig+0xb0>
 8000968:	f7ff fe22 	bl	80005b0 <HAL_GetTick>
 800096c:	1b80      	subs	r0, r0, r6
 800096e:	2802      	cmp	r0, #2
 8000970:	f200 80d2 	bhi.w	8000b18 <HAL_RCC_OscConfig+0x254>
 8000974:	6f6b      	ldr	r3, [r5, #116]	; 0x74
 8000976:	079b      	lsls	r3, r3, #30
 8000978:	d5f6      	bpl.n	8000968 <HAL_RCC_OscConfig+0xa4>
 800097a:	6823      	ldr	r3, [r4, #0]
 800097c:	075d      	lsls	r5, r3, #29
 800097e:	d56b      	bpl.n	8000a58 <HAL_RCC_OscConfig+0x194>
 8000980:	4b81      	ldr	r3, [pc, #516]	; (8000b88 <HAL_RCC_OscConfig+0x2c4>)
 8000982:	6c1a      	ldr	r2, [r3, #64]	; 0x40
 8000984:	00d0      	lsls	r0, r2, #3
 8000986:	f100 80ed 	bmi.w	8000b64 <HAL_RCC_OscConfig+0x2a0>
 800098a:	6c1a      	ldr	r2, [r3, #64]	; 0x40
 800098c:	2501      	movs	r5, #1
 800098e:	f042 5280 	orr.w	r2, r2, #268435456	; 0x10000000
 8000992:	641a      	str	r2, [r3, #64]	; 0x40
 8000994:	6c1b      	ldr	r3, [r3, #64]	; 0x40
 8000996:	f003 5380 	and.w	r3, r3, #268435456	; 0x10000000
 800099a:	9301      	str	r3, [sp, #4]
 800099c:	9b01      	ldr	r3, [sp, #4]
 800099e:	4b7b      	ldr	r3, [pc, #492]	; (8000b8c <HAL_RCC_OscConfig+0x2c8>)
 80009a0:	681a      	ldr	r2, [r3, #0]
 80009a2:	05d1      	lsls	r1, r2, #23
 80009a4:	f140 80a7 	bpl.w	8000af6 <HAL_RCC_OscConfig+0x232>
 80009a8:	68a3      	ldr	r3, [r4, #8]
 80009aa:	2b01      	cmp	r3, #1
 80009ac:	d039      	beq.n	8000a22 <HAL_RCC_OscConfig+0x15e>
 80009ae:	2b00      	cmp	r3, #0
 80009b0:	f000 80da 	beq.w	8000b68 <HAL_RCC_OscConfig+0x2a4>
 80009b4:	2b05      	cmp	r3, #5
 80009b6:	4b74      	ldr	r3, [pc, #464]	; (8000b88 <HAL_RCC_OscConfig+0x2c4>)
 80009b8:	6f1a      	ldr	r2, [r3, #112]	; 0x70
 80009ba:	f000 8111 	beq.w	8000be0 <HAL_RCC_OscConfig+0x31c>
 80009be:	f022 0201 	bic.w	r2, r2, #1
 80009c2:	671a      	str	r2, [r3, #112]	; 0x70
 80009c4:	6f1a      	ldr	r2, [r3, #112]	; 0x70
 80009c6:	f022 0204 	bic.w	r2, r2, #4
 80009ca:	671a      	str	r2, [r3, #112]	; 0x70
 80009cc:	e02e      	b.n	8000a2c <HAL_RCC_OscConfig+0x168>
 80009ce:	4a6e      	ldr	r2, [pc, #440]	; (8000b88 <HAL_RCC_OscConfig+0x2c4>)
 80009d0:	6891      	ldr	r1, [r2, #8]
 80009d2:	f011 0f0c 	tst.w	r1, #12
 80009d6:	d062      	beq.n	8000a9e <HAL_RCC_OscConfig+0x1da>
 80009d8:	6891      	ldr	r1, [r2, #8]
 80009da:	f001 010c 	and.w	r1, r1, #12
 80009de:	2908      	cmp	r1, #8
 80009e0:	d05a      	beq.n	8000a98 <HAL_RCC_OscConfig+0x1d4>
 80009e2:	68e3      	ldr	r3, [r4, #12]
 80009e4:	2b00      	cmp	r3, #0
 80009e6:	f000 80df 	beq.w	8000ba8 <HAL_RCC_OscConfig+0x2e4>
 80009ea:	4b67      	ldr	r3, [pc, #412]	; (8000b88 <HAL_RCC_OscConfig+0x2c4>)
 80009ec:	681a      	ldr	r2, [r3, #0]
 80009ee:	461d      	mov	r5, r3
 80009f0:	f042 0201 	orr.w	r2, r2, #1
 80009f4:	601a      	str	r2, [r3, #0]
 80009f6:	f7ff fddb 	bl	80005b0 <HAL_GetTick>
 80009fa:	4606      	mov	r6, r0
 80009fc:	e005      	b.n	8000a0a <HAL_RCC_OscConfig+0x146>
 80009fe:	f7ff fdd7 	bl	80005b0 <HAL_GetTick>
 8000a02:	1b80      	subs	r0, r0, r6
 8000a04:	2802      	cmp	r0, #2
 8000a06:	f200 8087 	bhi.w	8000b18 <HAL_RCC_OscConfig+0x254>
 8000a0a:	682b      	ldr	r3, [r5, #0]
 8000a0c:	0798      	lsls	r0, r3, #30
 8000a0e:	d5f6      	bpl.n	80009fe <HAL_RCC_OscConfig+0x13a>
 8000a10:	682b      	ldr	r3, [r5, #0]
 8000a12:	6922      	ldr	r2, [r4, #16]
 8000a14:	f023 03f8 	bic.w	r3, r3, #248	; 0xf8
 8000a18:	ea43 03c2 	orr.w	r3, r3, r2, lsl #3
 8000a1c:	602b      	str	r3, [r5, #0]
 8000a1e:	6823      	ldr	r3, [r4, #0]
 8000a20:	e792      	b.n	8000948 <HAL_RCC_OscConfig+0x84>
 8000a22:	4a59      	ldr	r2, [pc, #356]	; (8000b88 <HAL_RCC_OscConfig+0x2c4>)
 8000a24:	6f13      	ldr	r3, [r2, #112]	; 0x70
 8000a26:	f043 0301 	orr.w	r3, r3, #1
 8000a2a:	6713      	str	r3, [r2, #112]	; 0x70
 8000a2c:	f7ff fdc0 	bl	80005b0 <HAL_GetTick>
 8000a30:	4e55      	ldr	r6, [pc, #340]	; (8000b88 <HAL_RCC_OscConfig+0x2c4>)
 8000a32:	4680      	mov	r8, r0
 8000a34:	f241 3788 	movw	r7, #5000	; 0x1388
 8000a38:	e005      	b.n	8000a46 <HAL_RCC_OscConfig+0x182>
 8000a3a:	f7ff fdb9 	bl	80005b0 <HAL_GetTick>
 8000a3e:	eba0 0008 	sub.w	r0, r0, r8
 8000a42:	42b8      	cmp	r0, r7
 8000a44:	d868      	bhi.n	8000b18 <HAL_RCC_OscConfig+0x254>
 8000a46:	6f33      	ldr	r3, [r6, #112]	; 0x70
 8000a48:	079b      	lsls	r3, r3, #30
 8000a4a:	d5f6      	bpl.n	8000a3a <HAL_RCC_OscConfig+0x176>
 8000a4c:	b125      	cbz	r5, 8000a58 <HAL_RCC_OscConfig+0x194>
 8000a4e:	4a4e      	ldr	r2, [pc, #312]	; (8000b88 <HAL_RCC_OscConfig+0x2c4>)
 8000a50:	6c13      	ldr	r3, [r2, #64]	; 0x40
 8000a52:	f023 5380 	bic.w	r3, r3, #268435456	; 0x10000000
 8000a56:	6413      	str	r3, [r2, #64]	; 0x40
 8000a58:	69a3      	ldr	r3, [r4, #24]
 8000a5a:	b1cb      	cbz	r3, 8000a90 <HAL_RCC_OscConfig+0x1cc>
 8000a5c:	4a4a      	ldr	r2, [pc, #296]	; (8000b88 <HAL_RCC_OscConfig+0x2c4>)
 8000a5e:	6891      	ldr	r1, [r2, #8]
 8000a60:	f001 010c 	and.w	r1, r1, #12
 8000a64:	2908      	cmp	r1, #8
 8000a66:	d021      	beq.n	8000aac <HAL_RCC_OscConfig+0x1e8>
 8000a68:	2b02      	cmp	r3, #2
 8000a6a:	6813      	ldr	r3, [r2, #0]
 8000a6c:	f000 80c0 	beq.w	8000bf0 <HAL_RCC_OscConfig+0x32c>
 8000a70:	f023 7380 	bic.w	r3, r3, #16777216	; 0x1000000
 8000a74:	4614      	mov	r4, r2
 8000a76:	6013      	str	r3, [r2, #0]
 8000a78:	f7ff fd9a 	bl	80005b0 <HAL_GetTick>
 8000a7c:	4605      	mov	r5, r0
 8000a7e:	e004      	b.n	8000a8a <HAL_RCC_OscConfig+0x1c6>
 8000a80:	f7ff fd96 	bl	80005b0 <HAL_GetTick>
 8000a84:	1b40      	subs	r0, r0, r5
 8000a86:	2802      	cmp	r0, #2
 8000a88:	d846      	bhi.n	8000b18 <HAL_RCC_OscConfig+0x254>
 8000a8a:	6823      	ldr	r3, [r4, #0]
 8000a8c:	019b      	lsls	r3, r3, #6
 8000a8e:	d4f7      	bmi.n	8000a80 <HAL_RCC_OscConfig+0x1bc>
 8000a90:	2000      	movs	r0, #0
 8000a92:	b002      	add	sp, #8
 8000a94:	e8bd 81f0 	ldmia.w	sp!, {r4, r5, r6, r7, r8, pc}
 8000a98:	6852      	ldr	r2, [r2, #4]
 8000a9a:	0256      	lsls	r6, r2, #9
 8000a9c:	d4a1      	bmi.n	80009e2 <HAL_RCC_OscConfig+0x11e>
 8000a9e:	4a3a      	ldr	r2, [pc, #232]	; (8000b88 <HAL_RCC_OscConfig+0x2c4>)
 8000aa0:	6812      	ldr	r2, [r2, #0]
 8000aa2:	0795      	lsls	r5, r2, #30
 8000aa4:	d53c      	bpl.n	8000b20 <HAL_RCC_OscConfig+0x25c>
 8000aa6:	68e2      	ldr	r2, [r4, #12]
 8000aa8:	2a01      	cmp	r2, #1
 8000aaa:	d039      	beq.n	8000b20 <HAL_RCC_OscConfig+0x25c>
 8000aac:	2001      	movs	r0, #1
 8000aae:	b002      	add	sp, #8
 8000ab0:	e8bd 81f0 	ldmia.w	sp!, {r4, r5, r6, r7, r8, pc}
 8000ab4:	4b34      	ldr	r3, [pc, #208]	; (8000b88 <HAL_RCC_OscConfig+0x2c4>)
 8000ab6:	6f5a      	ldr	r2, [r3, #116]	; 0x74
 8000ab8:	461d      	mov	r5, r3
 8000aba:	f022 0201 	bic.w	r2, r2, #1
 8000abe:	675a      	str	r2, [r3, #116]	; 0x74
 8000ac0:	f7ff fd76 	bl	80005b0 <HAL_GetTick>
 8000ac4:	4606      	mov	r6, r0
 8000ac6:	e004      	b.n	8000ad2 <HAL_RCC_OscConfig+0x20e>
 8000ac8:	f7ff fd72 	bl	80005b0 <HAL_GetTick>
 8000acc:	1b80      	subs	r0, r0, r6
 8000ace:	2802      	cmp	r0, #2
 8000ad0:	d822      	bhi.n	8000b18 <HAL_RCC_OscConfig+0x254>
 8000ad2:	6f6b      	ldr	r3, [r5, #116]	; 0x74
 8000ad4:	079f      	lsls	r7, r3, #30
 8000ad6:	d4f7      	bmi.n	8000ac8 <HAL_RCC_OscConfig+0x204>
 8000ad8:	e74f      	b.n	800097a <HAL_RCC_OscConfig+0xb6>
 8000ada:	684a      	ldr	r2, [r1, #4]
 8000adc:	0250      	lsls	r0, r2, #9
 8000ade:	f57f af08 	bpl.w	80008f2 <HAL_RCC_OscConfig+0x2e>
 8000ae2:	4a29      	ldr	r2, [pc, #164]	; (8000b88 <HAL_RCC_OscConfig+0x2c4>)
 8000ae4:	6812      	ldr	r2, [r2, #0]
 8000ae6:	0391      	lsls	r1, r2, #14
 8000ae8:	f57f af2c 	bpl.w	8000944 <HAL_RCC_OscConfig+0x80>
 8000aec:	6862      	ldr	r2, [r4, #4]
 8000aee:	2a00      	cmp	r2, #0
 8000af0:	f47f af28 	bne.w	8000944 <HAL_RCC_OscConfig+0x80>
 8000af4:	e7da      	b.n	8000aac <HAL_RCC_OscConfig+0x1e8>
 8000af6:	681a      	ldr	r2, [r3, #0]
 8000af8:	461e      	mov	r6, r3
 8000afa:	f442 7280 	orr.w	r2, r2, #256	; 0x100
 8000afe:	601a      	str	r2, [r3, #0]
 8000b00:	f7ff fd56 	bl	80005b0 <HAL_GetTick>
 8000b04:	4607      	mov	r7, r0
 8000b06:	6833      	ldr	r3, [r6, #0]
 8000b08:	05da      	lsls	r2, r3, #23
 8000b0a:	f53f af4d 	bmi.w	80009a8 <HAL_RCC_OscConfig+0xe4>
 8000b0e:	f7ff fd4f 	bl	80005b0 <HAL_GetTick>
 8000b12:	1bc0      	subs	r0, r0, r7
 8000b14:	2864      	cmp	r0, #100	; 0x64
 8000b16:	d9f6      	bls.n	8000b06 <HAL_RCC_OscConfig+0x242>
 8000b18:	2003      	movs	r0, #3
 8000b1a:	b002      	add	sp, #8
 8000b1c:	e8bd 81f0 	ldmia.w	sp!, {r4, r5, r6, r7, r8, pc}
 8000b20:	4919      	ldr	r1, [pc, #100]	; (8000b88 <HAL_RCC_OscConfig+0x2c4>)
 8000b22:	6920      	ldr	r0, [r4, #16]
 8000b24:	680a      	ldr	r2, [r1, #0]
 8000b26:	f022 02f8 	bic.w	r2, r2, #248	; 0xf8
 8000b2a:	ea42 02c0 	orr.w	r2, r2, r0, lsl #3
 8000b2e:	600a      	str	r2, [r1, #0]
 8000b30:	e70a      	b.n	8000948 <HAL_RCC_OscConfig+0x84>
 8000b32:	2001      	movs	r0, #1
 8000b34:	4770      	bx	lr
 8000b36:	4b14      	ldr	r3, [pc, #80]	; (8000b88 <HAL_RCC_OscConfig+0x2c4>)
 8000b38:	681a      	ldr	r2, [r3, #0]
 8000b3a:	461d      	mov	r5, r3
 8000b3c:	f422 3280 	bic.w	r2, r2, #65536	; 0x10000
 8000b40:	601a      	str	r2, [r3, #0]
 8000b42:	681a      	ldr	r2, [r3, #0]
 8000b44:	f422 2280 	bic.w	r2, r2, #262144	; 0x40000
 8000b48:	601a      	str	r2, [r3, #0]
 8000b4a:	f7ff fd31 	bl	80005b0 <HAL_GetTick>
 8000b4e:	4606      	mov	r6, r0
 8000b50:	e004      	b.n	8000b5c <HAL_RCC_OscConfig+0x298>
 8000b52:	f7ff fd2d 	bl	80005b0 <HAL_GetTick>
 8000b56:	1b80      	subs	r0, r0, r6
 8000b58:	2864      	cmp	r0, #100	; 0x64
 8000b5a:	d8dd      	bhi.n	8000b18 <HAL_RCC_OscConfig+0x254>
 8000b5c:	682b      	ldr	r3, [r5, #0]
 8000b5e:	039b      	lsls	r3, r3, #14
 8000b60:	d4f7      	bmi.n	8000b52 <HAL_RCC_OscConfig+0x28e>
 8000b62:	e6ee      	b.n	8000942 <HAL_RCC_OscConfig+0x7e>
 8000b64:	2500      	movs	r5, #0
 8000b66:	e71a      	b.n	800099e <HAL_RCC_OscConfig+0xda>
 8000b68:	4b07      	ldr	r3, [pc, #28]	; (8000b88 <HAL_RCC_OscConfig+0x2c4>)
 8000b6a:	f241 3888 	movw	r8, #5000	; 0x1388
 8000b6e:	6f1a      	ldr	r2, [r3, #112]	; 0x70
 8000b70:	461e      	mov	r6, r3
 8000b72:	f022 0201 	bic.w	r2, r2, #1
 8000b76:	671a      	str	r2, [r3, #112]	; 0x70
 8000b78:	6f1a      	ldr	r2, [r3, #112]	; 0x70
 8000b7a:	f022 0204 	bic.w	r2, r2, #4
 8000b7e:	671a      	str	r2, [r3, #112]	; 0x70
 8000b80:	f7ff fd16 	bl	80005b0 <HAL_GetTick>
 8000b84:	4607      	mov	r7, r0
 8000b86:	e008      	b.n	8000b9a <HAL_RCC_OscConfig+0x2d6>
 8000b88:	40023800 	.word	0x40023800
 8000b8c:	40007000 	.word	0x40007000
 8000b90:	f7ff fd0e 	bl	80005b0 <HAL_GetTick>
 8000b94:	1bc0      	subs	r0, r0, r7
 8000b96:	4540      	cmp	r0, r8
 8000b98:	d8be      	bhi.n	8000b18 <HAL_RCC_OscConfig+0x254>
 8000b9a:	6f33      	ldr	r3, [r6, #112]	; 0x70
 8000b9c:	0798      	lsls	r0, r3, #30
 8000b9e:	d4f7      	bmi.n	8000b90 <HAL_RCC_OscConfig+0x2cc>
 8000ba0:	2d00      	cmp	r5, #0
 8000ba2:	f43f af59 	beq.w	8000a58 <HAL_RCC_OscConfig+0x194>
 8000ba6:	e752      	b.n	8000a4e <HAL_RCC_OscConfig+0x18a>
 8000ba8:	4b2c      	ldr	r3, [pc, #176]	; (8000c5c <HAL_RCC_OscConfig+0x398>)
 8000baa:	681a      	ldr	r2, [r3, #0]
 8000bac:	461d      	mov	r5, r3
 8000bae:	f022 0201 	bic.w	r2, r2, #1
 8000bb2:	601a      	str	r2, [r3, #0]
 8000bb4:	f7ff fcfc 	bl	80005b0 <HAL_GetTick>
 8000bb8:	4606      	mov	r6, r0
 8000bba:	e004      	b.n	8000bc6 <HAL_RCC_OscConfig+0x302>
 8000bbc:	f7ff fcf8 	bl	80005b0 <HAL_GetTick>
 8000bc0:	1b80      	subs	r0, r0, r6
 8000bc2:	2802      	cmp	r0, #2
 8000bc4:	d8a8      	bhi.n	8000b18 <HAL_RCC_OscConfig+0x254>
 8000bc6:	682b      	ldr	r3, [r5, #0]
 8000bc8:	0799      	lsls	r1, r3, #30
 8000bca:	d4f7      	bmi.n	8000bbc <HAL_RCC_OscConfig+0x2f8>
 8000bcc:	6823      	ldr	r3, [r4, #0]
 8000bce:	e6bb      	b.n	8000948 <HAL_RCC_OscConfig+0x84>
 8000bd0:	f442 2280 	orr.w	r2, r2, #262144	; 0x40000
 8000bd4:	601a      	str	r2, [r3, #0]
 8000bd6:	681a      	ldr	r2, [r3, #0]
 8000bd8:	f442 3280 	orr.w	r2, r2, #65536	; 0x10000
 8000bdc:	601a      	str	r2, [r3, #0]
 8000bde:	e6a2      	b.n	8000926 <HAL_RCC_OscConfig+0x62>
 8000be0:	f042 0204 	orr.w	r2, r2, #4
 8000be4:	671a      	str	r2, [r3, #112]	; 0x70
 8000be6:	6f1a      	ldr	r2, [r3, #112]	; 0x70
 8000be8:	f042 0201 	orr.w	r2, r2, #1
 8000bec:	671a      	str	r2, [r3, #112]	; 0x70
 8000bee:	e71d      	b.n	8000a2c <HAL_RCC_OscConfig+0x168>
 8000bf0:	f023 7380 	bic.w	r3, r3, #16777216	; 0x1000000
 8000bf4:	4615      	mov	r5, r2
 8000bf6:	6013      	str	r3, [r2, #0]
 8000bf8:	f7ff fcda 	bl	80005b0 <HAL_GetTick>
 8000bfc:	4606      	mov	r6, r0
 8000bfe:	e004      	b.n	8000c0a <HAL_RCC_OscConfig+0x346>
 8000c00:	f7ff fcd6 	bl	80005b0 <HAL_GetTick>
 8000c04:	1b80      	subs	r0, r0, r6
 8000c06:	2802      	cmp	r0, #2
 8000c08:	d886      	bhi.n	8000b18 <HAL_RCC_OscConfig+0x254>
 8000c0a:	682b      	ldr	r3, [r5, #0]
 8000c0c:	0199      	lsls	r1, r3, #6
 8000c0e:	d4f7      	bmi.n	8000c00 <HAL_RCC_OscConfig+0x33c>
 8000c10:	e9d4 3207 	ldrd	r3, r2, [r4, #28]
 8000c14:	6a61      	ldr	r1, [r4, #36]	; 0x24
 8000c16:	4313      	orrs	r3, r2
 8000c18:	e9d4 200a 	ldrd	r2, r0, [r4, #40]	; 0x28
 8000c1c:	ea43 1381 	orr.w	r3, r3, r1, lsl #6
 8000c20:	6b21      	ldr	r1, [r4, #48]	; 0x30
 8000c22:	0852      	lsrs	r2, r2, #1
 8000c24:	4c0d      	ldr	r4, [pc, #52]	; (8000c5c <HAL_RCC_OscConfig+0x398>)
 8000c26:	ea43 6300 	orr.w	r3, r3, r0, lsl #24
 8000c2a:	3a01      	subs	r2, #1
 8000c2c:	ea43 7301 	orr.w	r3, r3, r1, lsl #28
 8000c30:	ea43 4302 	orr.w	r3, r3, r2, lsl #16
 8000c34:	606b      	str	r3, [r5, #4]
 8000c36:	682b      	ldr	r3, [r5, #0]
 8000c38:	f043 7380 	orr.w	r3, r3, #16777216	; 0x1000000
 8000c3c:	602b      	str	r3, [r5, #0]
 8000c3e:	f7ff fcb7 	bl	80005b0 <HAL_GetTick>
 8000c42:	4605      	mov	r5, r0
 8000c44:	e005      	b.n	8000c52 <HAL_RCC_OscConfig+0x38e>
 8000c46:	f7ff fcb3 	bl	80005b0 <HAL_GetTick>
 8000c4a:	1b40      	subs	r0, r0, r5
 8000c4c:	2802      	cmp	r0, #2
 8000c4e:	f63f af63 	bhi.w	8000b18 <HAL_RCC_OscConfig+0x254>
 8000c52:	6823      	ldr	r3, [r4, #0]
 8000c54:	019a      	lsls	r2, r3, #6
 8000c56:	d5f6      	bpl.n	8000c46 <HAL_RCC_OscConfig+0x382>
 8000c58:	e71a      	b.n	8000a90 <HAL_RCC_OscConfig+0x1cc>
 8000c5a:	bf00      	nop
 8000c5c:	40023800 	.word	0x40023800

08000c60 <HAL_RCC_ClockConfig>:
 8000c60:	b178      	cbz	r0, 8000c82 <HAL_RCC_ClockConfig+0x22>
 8000c62:	4a5e      	ldr	r2, [pc, #376]	; (8000ddc <HAL_RCC_ClockConfig+0x17c>)
 8000c64:	6813      	ldr	r3, [r2, #0]
 8000c66:	f003 030f 	and.w	r3, r3, #15
 8000c6a:	428b      	cmp	r3, r1
 8000c6c:	d20b      	bcs.n	8000c86 <HAL_RCC_ClockConfig+0x26>
 8000c6e:	6813      	ldr	r3, [r2, #0]
 8000c70:	f023 030f 	bic.w	r3, r3, #15
 8000c74:	430b      	orrs	r3, r1
 8000c76:	6013      	str	r3, [r2, #0]
 8000c78:	6813      	ldr	r3, [r2, #0]
 8000c7a:	f003 030f 	and.w	r3, r3, #15
 8000c7e:	428b      	cmp	r3, r1
 8000c80:	d001      	beq.n	8000c86 <HAL_RCC_ClockConfig+0x26>
 8000c82:	2001      	movs	r0, #1
 8000c84:	4770      	bx	lr
 8000c86:	6803      	ldr	r3, [r0, #0]
 8000c88:	e92d 41f0 	stmdb	sp!, {r4, r5, r6, r7, r8, lr}
 8000c8c:	079d      	lsls	r5, r3, #30
 8000c8e:	d514      	bpl.n	8000cba <HAL_RCC_ClockConfig+0x5a>
 8000c90:	075c      	lsls	r4, r3, #29
 8000c92:	d504      	bpl.n	8000c9e <HAL_RCC_ClockConfig+0x3e>
 8000c94:	4c52      	ldr	r4, [pc, #328]	; (8000de0 <HAL_RCC_ClockConfig+0x180>)
 8000c96:	68a2      	ldr	r2, [r4, #8]
 8000c98:	f442 52e0 	orr.w	r2, r2, #7168	; 0x1c00
 8000c9c:	60a2      	str	r2, [r4, #8]
 8000c9e:	071a      	lsls	r2, r3, #28
 8000ca0:	d504      	bpl.n	8000cac <HAL_RCC_ClockConfig+0x4c>
 8000ca2:	4c4f      	ldr	r4, [pc, #316]	; (8000de0 <HAL_RCC_ClockConfig+0x180>)
 8000ca4:	68a2      	ldr	r2, [r4, #8]
 8000ca6:	f442 4260 	orr.w	r2, r2, #57344	; 0xe000
 8000caa:	60a2      	str	r2, [r4, #8]
 8000cac:	4c4c      	ldr	r4, [pc, #304]	; (8000de0 <HAL_RCC_ClockConfig+0x180>)
 8000cae:	6885      	ldr	r5, [r0, #8]
 8000cb0:	68a2      	ldr	r2, [r4, #8]
 8000cb2:	f022 02f0 	bic.w	r2, r2, #240	; 0xf0
 8000cb6:	432a      	orrs	r2, r5
 8000cb8:	60a2      	str	r2, [r4, #8]
 8000cba:	07df      	lsls	r7, r3, #31
 8000cbc:	4604      	mov	r4, r0
 8000cbe:	460d      	mov	r5, r1
 8000cc0:	d521      	bpl.n	8000d06 <HAL_RCC_ClockConfig+0xa6>
 8000cc2:	6842      	ldr	r2, [r0, #4]
 8000cc4:	4b46      	ldr	r3, [pc, #280]	; (8000de0 <HAL_RCC_ClockConfig+0x180>)
 8000cc6:	2a01      	cmp	r2, #1
 8000cc8:	681b      	ldr	r3, [r3, #0]
 8000cca:	d063      	beq.n	8000d94 <HAL_RCC_ClockConfig+0x134>
 8000ccc:	2a02      	cmp	r2, #2
 8000cce:	d078      	beq.n	8000dc2 <HAL_RCC_ClockConfig+0x162>
 8000cd0:	0799      	lsls	r1, r3, #30
 8000cd2:	d528      	bpl.n	8000d26 <HAL_RCC_ClockConfig+0xc6>
 8000cd4:	4942      	ldr	r1, [pc, #264]	; (8000de0 <HAL_RCC_ClockConfig+0x180>)
 8000cd6:	f241 3888 	movw	r8, #5000	; 0x1388
 8000cda:	688b      	ldr	r3, [r1, #8]
 8000cdc:	460e      	mov	r6, r1
 8000cde:	f023 0303 	bic.w	r3, r3, #3
 8000ce2:	4313      	orrs	r3, r2
 8000ce4:	608b      	str	r3, [r1, #8]
 8000ce6:	f7ff fc63 	bl	80005b0 <HAL_GetTick>
 8000cea:	4607      	mov	r7, r0
 8000cec:	e004      	b.n	8000cf8 <HAL_RCC_ClockConfig+0x98>
 8000cee:	f7ff fc5f 	bl	80005b0 <HAL_GetTick>
 8000cf2:	1bc0      	subs	r0, r0, r7
 8000cf4:	4540      	cmp	r0, r8
 8000cf6:	d862      	bhi.n	8000dbe <HAL_RCC_ClockConfig+0x15e>
 8000cf8:	68b3      	ldr	r3, [r6, #8]
 8000cfa:	6862      	ldr	r2, [r4, #4]
 8000cfc:	f003 030c 	and.w	r3, r3, #12
 8000d00:	ebb3 0f82 	cmp.w	r3, r2, lsl #2
 8000d04:	d1f3      	bne.n	8000cee <HAL_RCC_ClockConfig+0x8e>
 8000d06:	4a35      	ldr	r2, [pc, #212]	; (8000ddc <HAL_RCC_ClockConfig+0x17c>)
 8000d08:	6813      	ldr	r3, [r2, #0]
 8000d0a:	f003 030f 	and.w	r3, r3, #15
 8000d0e:	42ab      	cmp	r3, r5
 8000d10:	d90c      	bls.n	8000d2c <HAL_RCC_ClockConfig+0xcc>
 8000d12:	6813      	ldr	r3, [r2, #0]
 8000d14:	f023 030f 	bic.w	r3, r3, #15
 8000d18:	432b      	orrs	r3, r5
 8000d1a:	6013      	str	r3, [r2, #0]
 8000d1c:	6813      	ldr	r3, [r2, #0]
 8000d1e:	f003 030f 	and.w	r3, r3, #15
 8000d22:	42ab      	cmp	r3, r5
 8000d24:	d002      	beq.n	8000d2c <HAL_RCC_ClockConfig+0xcc>
 8000d26:	2001      	movs	r0, #1
 8000d28:	e8bd 81f0 	ldmia.w	sp!, {r4, r5, r6, r7, r8, pc}
 8000d2c:	6823      	ldr	r3, [r4, #0]
 8000d2e:	075a      	lsls	r2, r3, #29
 8000d30:	d506      	bpl.n	8000d40 <HAL_RCC_ClockConfig+0xe0>
 8000d32:	492b      	ldr	r1, [pc, #172]	; (8000de0 <HAL_RCC_ClockConfig+0x180>)
 8000d34:	68e0      	ldr	r0, [r4, #12]
 8000d36:	688a      	ldr	r2, [r1, #8]
 8000d38:	f422 52e0 	bic.w	r2, r2, #7168	; 0x1c00
 8000d3c:	4302      	orrs	r2, r0
 8000d3e:	608a      	str	r2, [r1, #8]
 8000d40:	071b      	lsls	r3, r3, #28
 8000d42:	d507      	bpl.n	8000d54 <HAL_RCC_ClockConfig+0xf4>
 8000d44:	4a26      	ldr	r2, [pc, #152]	; (8000de0 <HAL_RCC_ClockConfig+0x180>)
 8000d46:	6921      	ldr	r1, [r4, #16]
 8000d48:	6893      	ldr	r3, [r2, #8]
 8000d4a:	f423 4360 	bic.w	r3, r3, #57344	; 0xe000
 8000d4e:	ea43 03c1 	orr.w	r3, r3, r1, lsl #3
 8000d52:	6093      	str	r3, [r2, #8]
 8000d54:	4922      	ldr	r1, [pc, #136]	; (8000de0 <HAL_RCC_ClockConfig+0x180>)
 8000d56:	688b      	ldr	r3, [r1, #8]
 8000d58:	f003 030c 	and.w	r3, r3, #12
 8000d5c:	2b04      	cmp	r3, #4
 8000d5e:	d01c      	beq.n	8000d9a <HAL_RCC_ClockConfig+0x13a>
 8000d60:	2b08      	cmp	r3, #8
 8000d62:	d12a      	bne.n	8000dba <HAL_RCC_ClockConfig+0x15a>
 8000d64:	684a      	ldr	r2, [r1, #4]
 8000d66:	684b      	ldr	r3, [r1, #4]
 8000d68:	f002 023f 	and.w	r2, r2, #63	; 0x3f
 8000d6c:	6849      	ldr	r1, [r1, #4]
 8000d6e:	f413 0380 	ands.w	r3, r3, #4194304	; 0x400000
 8000d72:	d129      	bne.n	8000dc8 <HAL_RCC_ClockConfig+0x168>
 8000d74:	481b      	ldr	r0, [pc, #108]	; (8000de4 <HAL_RCC_ClockConfig+0x184>)
 8000d76:	f3c1 1188 	ubfx	r1, r1, #6, #9
 8000d7a:	fba1 0100 	umull	r0, r1, r1, r0
 8000d7e:	f7ff fa5b 	bl	8000238 <__aeabi_uldivmod>
 8000d82:	4b17      	ldr	r3, [pc, #92]	; (8000de0 <HAL_RCC_ClockConfig+0x180>)
 8000d84:	685b      	ldr	r3, [r3, #4]
 8000d86:	f3c3 4301 	ubfx	r3, r3, #16, #2
 8000d8a:	3301      	adds	r3, #1
 8000d8c:	005b      	lsls	r3, r3, #1
 8000d8e:	fbb0 f3f3 	udiv	r3, r0, r3
 8000d92:	e003      	b.n	8000d9c <HAL_RCC_ClockConfig+0x13c>
 8000d94:	039e      	lsls	r6, r3, #14
 8000d96:	d49d      	bmi.n	8000cd4 <HAL_RCC_ClockConfig+0x74>
 8000d98:	e7c5      	b.n	8000d26 <HAL_RCC_ClockConfig+0xc6>
 8000d9a:	4b13      	ldr	r3, [pc, #76]	; (8000de8 <HAL_RCC_ClockConfig+0x188>)
 8000d9c:	4a10      	ldr	r2, [pc, #64]	; (8000de0 <HAL_RCC_ClockConfig+0x180>)
 8000d9e:	2000      	movs	r0, #0
 8000da0:	4c12      	ldr	r4, [pc, #72]	; (8000dec <HAL_RCC_ClockConfig+0x18c>)
 8000da2:	6892      	ldr	r2, [r2, #8]
 8000da4:	4912      	ldr	r1, [pc, #72]	; (8000df0 <HAL_RCC_ClockConfig+0x190>)
 8000da6:	f3c2 1203 	ubfx	r2, r2, #4, #4
 8000daa:	5ca2      	ldrb	r2, [r4, r2]
 8000dac:	40d3      	lsrs	r3, r2
 8000dae:	600b      	str	r3, [r1, #0]
 8000db0:	f7ff fbc2 	bl	8000538 <HAL_InitTick>
 8000db4:	2000      	movs	r0, #0
 8000db6:	e8bd 81f0 	ldmia.w	sp!, {r4, r5, r6, r7, r8, pc}
 8000dba:	4b0a      	ldr	r3, [pc, #40]	; (8000de4 <HAL_RCC_ClockConfig+0x184>)
 8000dbc:	e7ee      	b.n	8000d9c <HAL_RCC_ClockConfig+0x13c>
 8000dbe:	2003      	movs	r0, #3
 8000dc0:	e7b2      	b.n	8000d28 <HAL_RCC_ClockConfig+0xc8>
 8000dc2:	0198      	lsls	r0, r3, #6
 8000dc4:	d486      	bmi.n	8000cd4 <HAL_RCC_ClockConfig+0x74>
 8000dc6:	e7ae      	b.n	8000d26 <HAL_RCC_ClockConfig+0xc6>
 8000dc8:	4807      	ldr	r0, [pc, #28]	; (8000de8 <HAL_RCC_ClockConfig+0x188>)
 8000dca:	f3c1 1188 	ubfx	r1, r1, #6, #9
 8000dce:	2300      	movs	r3, #0
 8000dd0:	fba1 0100 	umull	r0, r1, r1, r0
 8000dd4:	f7ff fa30 	bl	8000238 <__aeabi_uldivmod>
 8000dd8:	e7d3      	b.n	8000d82 <HAL_RCC_ClockConfig+0x122>
 8000dda:	bf00      	nop
 8000ddc:	40023c00 	.word	0x40023c00
 8000de0:	40023800 	.word	0x40023800
 8000de4:	00f42400 	.word	0x00f42400
 8000de8:	017d7840 	.word	0x017d7840
 8000dec:	0800102c 	.word	0x0800102c
 8000df0:	20000008 	.word	0x20000008

08000df4 <SystemClock_Config>:
 8000df4:	b530      	push	{r4, r5, lr}
 8000df6:	b095      	sub	sp, #84	; 0x54
 8000df8:	2230      	movs	r2, #48	; 0x30
 8000dfa:	2100      	movs	r1, #0
 8000dfc:	2400      	movs	r4, #0
 8000dfe:	a808      	add	r0, sp, #32
 8000e00:	2501      	movs	r5, #1
 8000e02:	f000 f8ff 	bl	8001004 <memset>
 8000e06:	4b18      	ldr	r3, [pc, #96]	; (8000e68 <SystemClock_Config+0x74>)
 8000e08:	9403      	str	r4, [sp, #12]
 8000e0a:	2002      	movs	r0, #2
 8000e0c:	9402      	str	r4, [sp, #8]
 8000e0e:	2110      	movs	r1, #16
 8000e10:	9406      	str	r4, [sp, #24]
 8000e12:	e9cd 4404 	strd	r4, r4, [sp, #16]
 8000e16:	6c1a      	ldr	r2, [r3, #64]	; 0x40
 8000e18:	f042 5280 	orr.w	r2, r2, #268435456	; 0x10000000
 8000e1c:	641a      	str	r2, [r3, #64]	; 0x40
 8000e1e:	6c1b      	ldr	r3, [r3, #64]	; 0x40
 8000e20:	4a12      	ldr	r2, [pc, #72]	; (8000e6c <SystemClock_Config+0x78>)
 8000e22:	f003 5380 	and.w	r3, r3, #268435456	; 0x10000000
 8000e26:	9300      	str	r3, [sp, #0]
 8000e28:	9b00      	ldr	r3, [sp, #0]
 8000e2a:	6813      	ldr	r3, [r2, #0]
 8000e2c:	f423 4340 	bic.w	r3, r3, #49152	; 0xc000
 8000e30:	f443 4380 	orr.w	r3, r3, #16384	; 0x4000
 8000e34:	6013      	str	r3, [r2, #0]
 8000e36:	6813      	ldr	r3, [r2, #0]
 8000e38:	9007      	str	r0, [sp, #28]
 8000e3a:	a807      	add	r0, sp, #28
 8000e3c:	f403 4340 	and.w	r3, r3, #49152	; 0xc000
 8000e40:	910b      	str	r1, [sp, #44]	; 0x2c
 8000e42:	940d      	str	r4, [sp, #52]	; 0x34
 8000e44:	9301      	str	r3, [sp, #4]
 8000e46:	9b01      	ldr	r3, [sp, #4]
 8000e48:	950a      	str	r5, [sp, #40]	; 0x28
 8000e4a:	f7ff fd3b 	bl	80008c4 <HAL_RCC_OscConfig>
 8000e4e:	230f      	movs	r3, #15
 8000e50:	4621      	mov	r1, r4
 8000e52:	a802      	add	r0, sp, #8
 8000e54:	9302      	str	r3, [sp, #8]
 8000e56:	e9cd 4403 	strd	r4, r4, [sp, #12]
 8000e5a:	e9cd 4405 	strd	r4, r4, [sp, #20]
 8000e5e:	f7ff feff 	bl	8000c60 <HAL_RCC_ClockConfig>
 8000e62:	b015      	add	sp, #84	; 0x54
 8000e64:	bd30      	pop	{r4, r5, pc}
 8000e66:	bf00      	nop
 8000e68:	40023800 	.word	0x40023800
 8000e6c:	40007000 	.word	0x40007000

08000e70 <main>:
 8000e70:	b500      	push	{lr}
 8000e72:	b087      	sub	sp, #28
 8000e74:	2400      	movs	r4, #0
 8000e76:	f7ff fb83 	bl	8000580 <HAL_Init>
 8000e7a:	f7ff ffbb 	bl	8000df4 <SystemClock_Config>
 8000e7e:	4b0f      	ldr	r3, [pc, #60]	; (8000ebc <main+0x4c>)
 8000e80:	9402      	str	r4, [sp, #8]
 8000e82:	2110      	movs	r1, #16
 8000e84:	9401      	str	r4, [sp, #4]
 8000e86:	4622      	mov	r2, r4
 8000e88:	9405      	str	r4, [sp, #20]
 8000e8a:	480d      	ldr	r0, [pc, #52]	; (8000ec0 <main+0x50>)
 8000e8c:	e9cd 4403 	strd	r4, r4, [sp, #12]
 8000e90:	6b1d      	ldr	r5, [r3, #48]	; 0x30
 8000e92:	f445 7500 	orr.w	r5, r5, #512	; 0x200
 8000e96:	631d      	str	r5, [r3, #48]	; 0x30
 8000e98:	6b1b      	ldr	r3, [r3, #48]	; 0x30
 8000e9a:	f403 7300 	and.w	r3, r3, #512	; 0x200
 8000e9e:	9300      	str	r3, [sp, #0]
 8000ea0:	9b00      	ldr	r3, [sp, #0]
 8000ea2:	f7ff fd0b 	bl	80008bc <HAL_GPIO_WritePin>
 8000ea6:	2210      	movs	r2, #16
 8000ea8:	2301      	movs	r3, #1
 8000eaa:	a901      	add	r1, sp, #4
 8000eac:	4804      	ldr	r0, [pc, #16]	; (8000ec0 <main+0x50>)
 8000eae:	e9cd 4403 	strd	r4, r4, [sp, #12]
 8000eb2:	e9cd 2301 	strd	r2, r3, [sp, #4]
 8000eb6:	f7ff fbe3 	bl	8000680 <HAL_GPIO_Init>
 8000eba:	e7fe      	b.n	8000eba <main+0x4a>
 8000ebc:	40023800 	.word	0x40023800
 8000ec0:	40022400 	.word	0x40022400

08000ec4 <HAL_MspInit>:
 8000ec4:	4b0a      	ldr	r3, [pc, #40]	; (8000ef0 <HAL_MspInit+0x2c>)
 8000ec6:	b082      	sub	sp, #8
 8000ec8:	6c1a      	ldr	r2, [r3, #64]	; 0x40
 8000eca:	f042 5280 	orr.w	r2, r2, #268435456	; 0x10000000
 8000ece:	641a      	str	r2, [r3, #64]	; 0x40
 8000ed0:	6c1a      	ldr	r2, [r3, #64]	; 0x40
 8000ed2:	f002 5280 	and.w	r2, r2, #268435456	; 0x10000000
 8000ed6:	9200      	str	r2, [sp, #0]
 8000ed8:	9a00      	ldr	r2, [sp, #0]
 8000eda:	6c5a      	ldr	r2, [r3, #68]	; 0x44
 8000edc:	f442 4280 	orr.w	r2, r2, #16384	; 0x4000
 8000ee0:	645a      	str	r2, [r3, #68]	; 0x44
 8000ee2:	6c5b      	ldr	r3, [r3, #68]	; 0x44
 8000ee4:	f403 4380 	and.w	r3, r3, #16384	; 0x4000
 8000ee8:	9301      	str	r3, [sp, #4]
 8000eea:	9b01      	ldr	r3, [sp, #4]
 8000eec:	b002      	add	sp, #8
 8000eee:	4770      	bx	lr
 8000ef0:	40023800 	.word	0x40023800

08000ef4 <NMI_Handler>:
 8000ef4:	4770      	bx	lr
 8000ef6:	bf00      	nop

08000ef8 <HardFault_Handler>:
 8000ef8:	e7fe      	b.n	8000ef8 <HardFault_Handler>
 8000efa:	bf00      	nop

08000efc <MemManage_Handler>:
 8000efc:	e7fe      	b.n	8000efc <MemManage_Handler>
 8000efe:	bf00      	nop

08000f00 <BusFault_Handler>:
 8000f00:	e7fe      	b.n	8000f00 <BusFault_Handler>
 8000f02:	bf00      	nop

08000f04 <UsageFault_Handler>:
 8000f04:	e7fe      	b.n	8000f04 <UsageFault_Handler>
 8000f06:	bf00      	nop

08000f08 <SVC_Handler>:
 8000f08:	4770      	bx	lr
 8000f0a:	bf00      	nop

08000f0c <DebugMon_Handler>:
 8000f0c:	4770      	bx	lr
 8000f0e:	bf00      	nop

08000f10 <PendSV_Handler>:
 8000f10:	4770      	bx	lr
 8000f12:	bf00      	nop

08000f14 <SysTick_Handler>:
 8000f14:	f7ff bb40 	b.w	8000598 <HAL_IncTick>

08000f18 <SystemInit>:
 8000f18:	4a0f      	ldr	r2, [pc, #60]	; (8000f58 <SystemInit+0x40>)
 8000f1a:	4b10      	ldr	r3, [pc, #64]	; (8000f5c <SystemInit+0x44>)
 8000f1c:	f8d2 0088 	ldr.w	r0, [r2, #136]	; 0x88
 8000f20:	490f      	ldr	r1, [pc, #60]	; (8000f60 <SystemInit+0x48>)
 8000f22:	f440 0070 	orr.w	r0, r0, #15728640	; 0xf00000
 8000f26:	b470      	push	{r4, r5, r6}
 8000f28:	f8c2 0088 	str.w	r0, [r2, #136]	; 0x88
 8000f2c:	2400      	movs	r4, #0
 8000f2e:	6818      	ldr	r0, [r3, #0]
 8000f30:	f04f 6500 	mov.w	r5, #134217728	; 0x8000000
 8000f34:	4e0b      	ldr	r6, [pc, #44]	; (8000f64 <SystemInit+0x4c>)
 8000f36:	f040 0001 	orr.w	r0, r0, #1
 8000f3a:	6018      	str	r0, [r3, #0]
 8000f3c:	609c      	str	r4, [r3, #8]
 8000f3e:	6818      	ldr	r0, [r3, #0]
 8000f40:	4001      	ands	r1, r0
 8000f42:	6019      	str	r1, [r3, #0]
 8000f44:	605e      	str	r6, [r3, #4]
 8000f46:	6819      	ldr	r1, [r3, #0]
 8000f48:	f421 2180 	bic.w	r1, r1, #262144	; 0x40000
 8000f4c:	6019      	str	r1, [r3, #0]
 8000f4e:	60dc      	str	r4, [r3, #12]
 8000f50:	6095      	str	r5, [r2, #8]
 8000f52:	bc70      	pop	{r4, r5, r6}
 8000f54:	4770      	bx	lr
 8000f56:	bf00      	nop
 8000f58:	e000ed00 	.word	0xe000ed00
 8000f5c:	40023800 	.word	0x40023800
 8000f60:	fef6ffff 	.word	0xfef6ffff
 8000f64:	24003010 	.word	0x24003010

08000f68 <Reset_Handler>:
 8000f68:	f8df d034 	ldr.w	sp, [pc, #52]	; 8000fa0 <LoopFillZerobss+0x14>
 8000f6c:	2100      	movs	r1, #0
 8000f6e:	e003      	b.n	8000f78 <LoopCopyDataInit>

08000f70 <CopyDataInit>:
 8000f70:	4b0c      	ldr	r3, [pc, #48]	; (8000fa4 <LoopFillZerobss+0x18>)
 8000f72:	585b      	ldr	r3, [r3, r1]
 8000f74:	5043      	str	r3, [r0, r1]
 8000f76:	3104      	adds	r1, #4

08000f78 <LoopCopyDataInit>:
 8000f78:	480b      	ldr	r0, [pc, #44]	; (8000fa8 <LoopFillZerobss+0x1c>)
 8000f7a:	4b0c      	ldr	r3, [pc, #48]	; (8000fac <LoopFillZerobss+0x20>)
 8000f7c:	1842      	adds	r2, r0, r1
 8000f7e:	429a      	cmp	r2, r3
 8000f80:	d3f6      	bcc.n	8000f70 <CopyDataInit>
 8000f82:	4a0b      	ldr	r2, [pc, #44]	; (8000fb0 <LoopFillZerobss+0x24>)
 8000f84:	e002      	b.n	8000f8c <LoopFillZerobss>

08000f86 <FillZerobss>:
 8000f86:	2300      	movs	r3, #0
 8000f88:	f842 3b04 	str.w	r3, [r2], #4

08000f8c <LoopFillZerobss>:
 8000f8c:	4b09      	ldr	r3, [pc, #36]	; (8000fb4 <LoopFillZerobss+0x28>)
 8000f8e:	429a      	cmp	r2, r3
 8000f90:	d3f9      	bcc.n	8000f86 <FillZerobss>
 8000f92:	f7ff ffc1 	bl	8000f18 <SystemInit>
 8000f96:	f000 f811 	bl	8000fbc <__libc_init_array>
 8000f9a:	f7ff ff69 	bl	8000e70 <main>
 8000f9e:	4770      	bx	lr
 8000fa0:	20080000 	.word	0x20080000
 8000fa4:	0800104c 	.word	0x0800104c
 8000fa8:	20000000 	.word	0x20000000
 8000fac:	2000000c 	.word	0x2000000c
 8000fb0:	2000000c 	.word	0x2000000c
 8000fb4:	2000002c 	.word	0x2000002c

08000fb8 <ADC_IRQHandler>:
 8000fb8:	e7fe      	b.n	8000fb8 <ADC_IRQHandler>
	...

08000fbc <__libc_init_array>:
 8000fbc:	b570      	push	{r4, r5, r6, lr}
 8000fbe:	4e0d      	ldr	r6, [pc, #52]	; (8000ff4 <__libc_init_array+0x38>)
 8000fc0:	4c0d      	ldr	r4, [pc, #52]	; (8000ff8 <__libc_init_array+0x3c>)
 8000fc2:	1ba4      	subs	r4, r4, r6
 8000fc4:	10a4      	asrs	r4, r4, #2
 8000fc6:	2500      	movs	r5, #0
 8000fc8:	42a5      	cmp	r5, r4
 8000fca:	d109      	bne.n	8000fe0 <__libc_init_array+0x24>
 8000fcc:	4e0b      	ldr	r6, [pc, #44]	; (8000ffc <__libc_init_array+0x40>)
 8000fce:	4c0c      	ldr	r4, [pc, #48]	; (8001000 <__libc_init_array+0x44>)
 8000fd0:	f000 f820 	bl	8001014 <_init>
 8000fd4:	1ba4      	subs	r4, r4, r6
 8000fd6:	10a4      	asrs	r4, r4, #2
 8000fd8:	2500      	movs	r5, #0
 8000fda:	42a5      	cmp	r5, r4
 8000fdc:	d105      	bne.n	8000fea <__libc_init_array+0x2e>
 8000fde:	bd70      	pop	{r4, r5, r6, pc}
 8000fe0:	f856 3025 	ldr.w	r3, [r6, r5, lsl #2]
 8000fe4:	4798      	blx	r3
 8000fe6:	3501      	adds	r5, #1
 8000fe8:	e7ee      	b.n	8000fc8 <__libc_init_array+0xc>
 8000fea:	f856 3025 	ldr.w	r3, [r6, r5, lsl #2]
 8000fee:	4798      	blx	r3
 8000ff0:	3501      	adds	r5, #1
 8000ff2:	e7f2      	b.n	8000fda <__libc_init_array+0x1e>
 8000ff4:	08001044 	.word	0x08001044
 8000ff8:	08001044 	.word	0x08001044
 8000ffc:	08001044 	.word	0x08001044
 8001000:	08001048 	.word	0x08001048

08001004 <memset>:
 8001004:	4402      	add	r2, r0
 8001006:	4603      	mov	r3, r0
 8001008:	4293      	cmp	r3, r2
 800100a:	d100      	bne.n	800100e <memset+0xa>
 800100c:	4770      	bx	lr
 800100e:	f803 1b01 	strb.w	r1, [r3], #1
 8001012:	e7f9      	b.n	8001008 <memset+0x4>

08001014 <_init>:
 8001014:	b5f8      	push	{r3, r4, r5, r6, r7, lr}
 8001016:	bf00      	nop
 8001018:	bcf8      	pop	{r3, r4, r5, r6, r7}
 800101a:	bc08      	pop	{r3}
 800101c:	469e      	mov	lr, r3
 800101e:	4770      	bx	lr

08001020 <_fini>:
 8001020:	b5f8      	push	{r3, r4, r5, r6, r7, lr}
 8001022:	bf00      	nop
 8001024:	bcf8      	pop	{r3, r4, r5, r6, r7}
 8001026:	bc08      	pop	{r3}
 8001028:	469e      	mov	lr, r3
 800102a:	4770      	bx	lr
